
.//vector_sum.elf:     file format elf32-sparc


Disassembly of section .text:

40000000 <_start>:
40000000:	21 00 00 04 	sethi  %hi(0x1000), %l0
40000004:	a0 14 20 e0 	or  %l0, 0xe0, %l0	! 10e0 <__DYNAMIC+0x10e0>
40000008:	81 88 00 10 	mov  %l0, %psr
4000000c:	a3 47 40 00 	rd  %asr29, %l1

40000010 <WIMSET>:
40000010:	a0 10 20 02 	mov  2, %l0
40000014:	81 94 20 00 	mov  %l0, %wim
40000018:	21 10 00 08 	sethi  %hi(0x40002000), %l0
4000001c:	a0 14 20 00 	mov  %l0, %l0	! 40002000 <trap_table_base>
40000020:	81 9c 20 00 	mov  %l0, %tbr

40000024 <STACKSETUP>:
40000024:	1d 3f fc 0b 	sethi  %hi(0xfff02c00), %sp
40000028:	9c 13 a3 00 	or  %sp, 0x300, %sp	! fff02f00 <res+0xbfec2540>
4000002c:	3d 3f fc 0b 	sethi  %hi(0xfff02c00), %fp
40000030:	bc 17 a3 00 	or  %fp, 0x300, %fp	! fff02f00 <res+0xbfec2540>
40000034:	40 00 00 f3 	call  40000400 <page_table_setup>
40000038:	01 00 00 00 	nop 
4000003c:	40 00 01 89 	call  40000660 <set_context_table_pointer>
40000040:	01 00 00 00 	nop 
40000044:	90 10 20 01 	mov  1, %o0	! 1 <__DYNAMIC+0x1>
40000048:	d0 a0 00 80 	sta  %o0, [ %g0 ] #ASI_N
4000004c:	40 00 0f 32 	call  40003d14 <enable_serial>
40000050:	01 00 00 00 	nop 
40000054:	40 00 13 3d 	call  40004d48 <main>
40000058:	01 00 00 00 	nop 

4000005c <HALT>:
4000005c:	91 d0 20 00 	ta  0
	...

40000400 <page_table_setup>:
40000400:	03 10 00 02 	sethi  %hi(0x40000800), %g1
40000404:	82 10 60 00 	mov  %g1, %g1	! 40000800 <PAGE_TABLE_BASE>
40000408:	88 10 28 00 	mov  0x800, %g4
4000040c:	88 00 40 04 	add  %g1, %g4, %g4
40000410:	89 31 20 04 	srl  %g4, 4, %g4
40000414:	88 11 20 01 	or  %g4, 1, %g4
40000418:	8a 10 2c 00 	mov  0xc00, %g5
4000041c:	86 01 40 01 	add  %g5, %g1, %g3
40000420:	c8 20 c0 00 	st  %g4, [ %g3 ]
40000424:	88 10 20 00 	clr  %g4
40000428:	88 00 40 04 	add  %g1, %g4, %g4
4000042c:	89 31 20 04 	srl  %g4, 4, %g4
40000430:	88 11 20 01 	or  %g4, 1, %g4
40000434:	8a 10 29 00 	mov  0x900, %g5
40000438:	86 01 40 01 	add  %g5, %g1, %g3
4000043c:	c8 20 c0 00 	st  %g4, [ %g3 ]
40000440:	05 01 00 00 	sethi  %hi(0x4000000), %g2
40000444:	84 10 a0 8a 	or  %g2, 0x8a, %g2	! 400008a <__DYNAMIC+0x400008a>
40000448:	8a 10 20 00 	clr  %g5
4000044c:	86 01 40 01 	add  %g5, %g1, %g3
40000450:	c4 20 c0 00 	st  %g2, [ %g3 ]
40000454:	05 01 00 10 	sethi  %hi(0x4004000), %g2
40000458:	84 10 a0 8e 	or  %g2, 0x8e, %g2	! 400408e <__DYNAMIC+0x400408e>
4000045c:	8a 10 20 04 	mov  4, %g5
40000460:	86 01 40 01 	add  %g5, %g1, %g3
40000464:	c4 20 c0 00 	st  %g2, [ %g3 ]
40000468:	88 10 21 00 	mov  0x100, %g4
4000046c:	88 00 40 04 	add  %g1, %g4, %g4
40000470:	89 31 20 04 	srl  %g4, 4, %g4
40000474:	88 11 20 01 	or  %g4, 1, %g4
40000478:	8a 10 29 04 	mov  0x904, %g5
4000047c:	86 01 40 01 	add  %g5, %g1, %g3
40000480:	c8 20 c0 00 	st  %g4, [ %g3 ]
40000484:	05 01 04 10 	sethi  %hi(0x4104000), %g2
40000488:	84 10 a0 8e 	or  %g2, 0x8e, %g2	! 410408e <__DYNAMIC+0x410408e>
4000048c:	8a 10 21 04 	mov  0x104, %g5
40000490:	86 01 40 01 	add  %g5, %g1, %g3
40000494:	c4 20 c0 00 	st  %g2, [ %g3 ]
40000498:	88 10 22 00 	mov  0x200, %g4
4000049c:	88 00 40 04 	add  %g1, %g4, %g4
400004a0:	89 31 20 04 	srl  %g4, 4, %g4
400004a4:	88 11 20 01 	or  %g4, 1, %g4
400004a8:	8a 10 29 08 	mov  0x908, %g5
400004ac:	86 01 40 01 	add  %g5, %g1, %g3
400004b0:	c8 20 c0 00 	st  %g4, [ %g3 ]
400004b4:	05 01 08 10 	sethi  %hi(0x4204000), %g2
400004b8:	84 10 a0 8e 	or  %g2, 0x8e, %g2	! 420408e <__DYNAMIC+0x420408e>
400004bc:	8a 10 22 04 	mov  0x204, %g5
400004c0:	86 01 40 01 	add  %g5, %g1, %g3
400004c4:	c4 20 c0 00 	st  %g2, [ %g3 ]
400004c8:	88 10 23 00 	mov  0x300, %g4
400004cc:	88 00 40 04 	add  %g1, %g4, %g4
400004d0:	89 31 20 04 	srl  %g4, 4, %g4
400004d4:	88 11 20 01 	or  %g4, 1, %g4
400004d8:	8a 10 29 0c 	mov  0x90c, %g5
400004dc:	86 01 40 01 	add  %g5, %g1, %g3
400004e0:	c8 20 c0 00 	st  %g4, [ %g3 ]
400004e4:	05 01 0c 10 	sethi  %hi(0x4304000), %g2
400004e8:	84 10 a0 8e 	or  %g2, 0x8e, %g2	! 430408e <__DYNAMIC+0x430408e>
400004ec:	8a 10 23 04 	mov  0x304, %g5
400004f0:	86 01 40 01 	add  %g5, %g1, %g3
400004f4:	c4 20 c0 00 	st  %g2, [ %g3 ]
400004f8:	88 10 24 00 	mov  0x400, %g4
400004fc:	88 00 40 04 	add  %g1, %g4, %g4
40000500:	89 31 20 04 	srl  %g4, 4, %g4
40000504:	88 11 20 01 	or  %g4, 1, %g4
40000508:	8a 10 29 10 	mov  0x910, %g5
4000050c:	86 01 40 01 	add  %g5, %g1, %g3
40000510:	c8 20 c0 00 	st  %g4, [ %g3 ]
40000514:	05 01 10 10 	sethi  %hi(0x4404000), %g2
40000518:	84 10 a0 8e 	or  %g2, 0x8e, %g2	! 440408e <__DYNAMIC+0x440408e>
4000051c:	8a 10 24 04 	mov  0x404, %g5
40000520:	86 01 40 01 	add  %g5, %g1, %g3
40000524:	c4 20 c0 00 	st  %g2, [ %g3 ]
40000528:	88 10 27 00 	mov  0x700, %g4
4000052c:	88 00 40 04 	add  %g1, %g4, %g4
40000530:	89 31 20 04 	srl  %g4, 4, %g4
40000534:	88 11 20 01 	or  %g4, 1, %g4
40000538:	8a 10 2b fc 	mov  0xbfc, %g5
4000053c:	86 01 40 01 	add  %g5, %g1, %g3
40000540:	c8 20 c0 00 	st  %g4, [ %g3 ]
40000544:	88 10 25 00 	mov  0x500, %g4
40000548:	88 00 40 04 	add  %g1, %g4, %g4
4000054c:	89 31 20 04 	srl  %g4, 4, %g4
40000550:	88 11 20 01 	or  %g4, 1, %g4
40000554:	8a 10 27 fc 	mov  0x7fc, %g5
40000558:	86 01 40 01 	add  %g5, %g1, %g3
4000055c:	c8 20 c0 00 	st  %g4, [ %g3 ]
40000560:	05 03 ff fe 	sethi  %hi(0xffff800), %g2
40000564:	84 10 a0 8e 	or  %g2, 0x8e, %g2	! ffff88e <__DYNAMIC+0xffff88e>
40000568:	8a 10 25 e0 	mov  0x5e0, %g5
4000056c:	86 01 40 01 	add  %g5, %g1, %g3
40000570:	c4 20 c0 00 	st  %g2, [ %g3 ]
40000574:	05 03 ff fe 	sethi  %hi(0xffff800), %g2
40000578:	84 10 a1 8e 	or  %g2, 0x18e, %g2	! ffff98e <__DYNAMIC+0xffff98e>
4000057c:	8a 10 25 e0 	mov  0x5e0, %g5
40000580:	86 01 40 01 	add  %g5, %g1, %g3
40000584:	c4 20 c0 00 	st  %g2, [ %g3 ]
40000588:	88 10 26 00 	mov  0x600, %g4
4000058c:	88 00 40 04 	add  %g1, %g4, %g4
40000590:	89 31 20 04 	srl  %g4, 4, %g4
40000594:	88 11 20 01 	or  %g4, 1, %g4
40000598:	8a 10 27 f0 	mov  0x7f0, %g5
4000059c:	86 01 40 01 	add  %g5, %g1, %g3
400005a0:	c8 20 c0 00 	st  %g4, [ %g3 ]
400005a4:	05 01 00 32 	sethi  %hi(0x400c800), %g2
400005a8:	84 10 a2 8e 	or  %g2, 0x28e, %g2	! 400ca8e <__DYNAMIC+0x400ca8e>
400005ac:	8a 10 26 04 	mov  0x604, %g5
400005b0:	86 01 40 01 	add  %g5, %g1, %g3
400005b4:	c4 20 c0 00 	st  %g2, [ %g3 ]
400005b8:	05 01 00 32 	sethi  %hi(0x400c800), %g2
400005bc:	84 10 a3 8e 	or  %g2, 0x38e, %g2	! 400cb8e <__DYNAMIC+0x400cb8e>
400005c0:	8a 10 26 08 	mov  0x608, %g5
400005c4:	86 01 40 01 	add  %g5, %g1, %g3
400005c8:	c4 20 c0 00 	st  %g2, [ %g3 ]
400005cc:	05 01 00 33 	sethi  %hi(0x400cc00), %g2
400005d0:	84 10 a0 8e 	or  %g2, 0x8e, %g2	! 400cc8e <__DYNAMIC+0x400cc8e>
400005d4:	8a 10 26 0c 	mov  0x60c, %g5
400005d8:	86 01 40 01 	add  %g5, %g1, %g3
400005dc:	c4 20 c0 00 	st  %g2, [ %g3 ]
400005e0:	05 01 00 33 	sethi  %hi(0x400cc00), %g2
400005e4:	84 10 a1 8e 	or  %g2, 0x18e, %g2	! 400cd8e <__DYNAMIC+0x400cd8e>
400005e8:	8a 10 26 10 	mov  0x610, %g5
400005ec:	86 01 40 01 	add  %g5, %g1, %g3
400005f0:	c4 20 c0 00 	st  %g2, [ %g3 ]
400005f4:	05 01 00 33 	sethi  %hi(0x400cc00), %g2
400005f8:	84 10 a2 8e 	or  %g2, 0x28e, %g2	! 400ce8e <__DYNAMIC+0x400ce8e>
400005fc:	8a 10 26 14 	mov  0x614, %g5
40000600:	86 01 40 01 	add  %g5, %g1, %g3
40000604:	c4 20 c0 00 	st  %g2, [ %g3 ]
40000608:	05 01 00 33 	sethi  %hi(0x400cc00), %g2
4000060c:	84 10 a3 8e 	or  %g2, 0x38e, %g2	! 400cf8e <__DYNAMIC+0x400cf8e>
40000610:	8a 10 26 18 	mov  0x618, %g5
40000614:	86 01 40 01 	add  %g5, %g1, %g3
40000618:	c4 20 c0 00 	st  %g2, [ %g3 ]
4000061c:	05 01 00 34 	sethi  %hi(0x400d000), %g2
40000620:	84 10 a0 8e 	or  %g2, 0x8e, %g2	! 400d08e <__DYNAMIC+0x400d08e>
40000624:	8a 10 26 1c 	mov  0x61c, %g5
40000628:	86 01 40 01 	add  %g5, %g1, %g3
4000062c:	c4 20 c0 00 	st  %g2, [ %g3 ]
40000630:	05 01 00 34 	sethi  %hi(0x400d000), %g2
40000634:	84 10 a1 8e 	or  %g2, 0x18e, %g2	! 400d18e <__DYNAMIC+0x400d18e>
40000638:	8a 10 26 20 	mov  0x620, %g5
4000063c:	86 01 40 01 	add  %g5, %g1, %g3
40000640:	c4 20 c0 00 	st  %g2, [ %g3 ]
40000644:	05 01 00 34 	sethi  %hi(0x400d000), %g2
40000648:	84 10 a2 8e 	or  %g2, 0x28e, %g2	! 400d28e <__DYNAMIC+0x400d28e>
4000064c:	8a 10 26 24 	mov  0x624, %g5
40000650:	86 01 40 01 	add  %g5, %g1, %g3
40000654:	c4 20 c0 00 	st  %g2, [ %g3 ]
40000658:	81 c3 e0 08 	retl 
4000065c:	01 00 00 00 	nop 

40000660 <set_context_table_pointer>:
40000660:	03 10 00 02 	sethi  %hi(0x40000800), %g1
40000664:	82 10 60 00 	mov  %g1, %g1	! 40000800 <PAGE_TABLE_BASE>
40000668:	8a 10 2c 00 	mov  0xc00, %g5
4000066c:	84 01 40 01 	add  %g5, %g1, %g2
40000670:	85 30 a0 04 	srl  %g2, 4, %g2
40000674:	84 10 a0 01 	or  %g2, 1, %g2
40000678:	86 10 21 00 	mov  0x100, %g3
4000067c:	c4 a0 c0 80 	sta  %g2, [ %g3 ] #ASI_N
40000680:	81 c3 e0 08 	retl 
40000684:	01 00 00 00 	nop 
40000688:	01 00 00 00 	nop 
4000068c:	01 00 00 00 	nop 
40000690:	01 00 00 00 	nop 
40000694:	01 00 00 00 	nop 
40000698:	01 00 00 00 	nop 
4000069c:	01 00 00 00 	nop 
400006a0:	01 00 00 00 	nop 
400006a4:	01 00 00 00 	nop 
400006a8:	01 00 00 00 	nop 
400006ac:	01 00 00 00 	nop 
400006b0:	01 00 00 00 	nop 
400006b4:	01 00 00 00 	nop 
400006b8:	01 00 00 00 	nop 
400006bc:	01 00 00 00 	nop 
400006c0:	01 00 00 00 	nop 
400006c4:	01 00 00 00 	nop 
400006c8:	01 00 00 00 	nop 
400006cc:	01 00 00 00 	nop 
400006d0:	01 00 00 00 	nop 
400006d4:	01 00 00 00 	nop 
400006d8:	01 00 00 00 	nop 
400006dc:	01 00 00 00 	nop 
400006e0:	01 00 00 00 	nop 
400006e4:	01 00 00 00 	nop 
400006e8:	01 00 00 00 	nop 
400006ec:	01 00 00 00 	nop 
400006f0:	01 00 00 00 	nop 
400006f4:	01 00 00 00 	nop 
400006f8:	01 00 00 00 	nop 
400006fc:	01 00 00 00 	nop 
40000700:	01 00 00 00 	nop 
40000704:	01 00 00 00 	nop 
40000708:	01 00 00 00 	nop 
4000070c:	01 00 00 00 	nop 
40000710:	01 00 00 00 	nop 
40000714:	01 00 00 00 	nop 
40000718:	01 00 00 00 	nop 
4000071c:	01 00 00 00 	nop 
40000720:	01 00 00 00 	nop 
40000724:	01 00 00 00 	nop 
40000728:	01 00 00 00 	nop 
4000072c:	01 00 00 00 	nop 
40000730:	01 00 00 00 	nop 
40000734:	01 00 00 00 	nop 
40000738:	01 00 00 00 	nop 
4000073c:	01 00 00 00 	nop 
40000740:	01 00 00 00 	nop 
40000744:	01 00 00 00 	nop 
40000748:	01 00 00 00 	nop 
4000074c:	01 00 00 00 	nop 
40000750:	01 00 00 00 	nop 
40000754:	01 00 00 00 	nop 
40000758:	01 00 00 00 	nop 
4000075c:	01 00 00 00 	nop 
40000760:	01 00 00 00 	nop 
40000764:	01 00 00 00 	nop 
40000768:	01 00 00 00 	nop 
4000076c:	01 00 00 00 	nop 
40000770:	01 00 00 00 	nop 
40000774:	01 00 00 00 	nop 
40000778:	01 00 00 00 	nop 
4000077c:	01 00 00 00 	nop 
40000780:	01 00 00 00 	nop 
40000784:	01 00 00 00 	nop 
40000788:	01 00 00 00 	nop 
4000078c:	01 00 00 00 	nop 
40000790:	01 00 00 00 	nop 
40000794:	01 00 00 00 	nop 
40000798:	01 00 00 00 	nop 
4000079c:	01 00 00 00 	nop 
400007a0:	01 00 00 00 	nop 
400007a4:	01 00 00 00 	nop 
400007a8:	01 00 00 00 	nop 
400007ac:	01 00 00 00 	nop 
400007b0:	01 00 00 00 	nop 
400007b4:	01 00 00 00 	nop 
400007b8:	01 00 00 00 	nop 
400007bc:	01 00 00 00 	nop 
400007c0:	01 00 00 00 	nop 
400007c4:	01 00 00 00 	nop 
400007c8:	01 00 00 00 	nop 
400007cc:	01 00 00 00 	nop 
400007d0:	01 00 00 00 	nop 
400007d4:	01 00 00 00 	nop 
400007d8:	01 00 00 00 	nop 
400007dc:	01 00 00 00 	nop 
400007e0:	01 00 00 00 	nop 
400007e4:	01 00 00 00 	nop 
400007e8:	01 00 00 00 	nop 
400007ec:	01 00 00 00 	nop 
400007f0:	01 00 00 00 	nop 
400007f4:	01 00 00 00 	nop 
400007f8:	01 00 00 00 	nop 
400007fc:	01 00 00 00 	nop 

40000800 <PAGE_TABLE_BASE>:
	...

40001800 <window_overflow_trap_handler>:
40001800:	a7 50 00 00 	rd  %wim, %l3
40001804:	a9 2c e0 07 	sll  %l3, 7, %l4
40001808:	a7 34 e0 01 	srl  %l3, 1, %l3
4000180c:	a6 14 c0 14 	or  %l3, %l4, %l3
40001810:	a6 0c e0 ff 	and  %l3, 0xff, %l3
40001814:	81 90 00 00 	mov  %g0, %wim
40001818:	01 00 00 00 	nop 
4000181c:	01 00 00 00 	nop 
40001820:	01 00 00 00 	nop 
40001824:	81 e0 00 00 	save 
40001828:	e0 3b a0 00 	std  %l0, [ %sp ]
4000182c:	e4 3b a0 08 	std  %l2, [ %sp + 8 ]
40001830:	e8 3b a0 10 	std  %l4, [ %sp + 0x10 ]
40001834:	ec 3b a0 18 	std  %l6, [ %sp + 0x18 ]
40001838:	f0 3b a0 20 	std  %i0, [ %sp + 0x20 ]
4000183c:	f4 3b a0 28 	std  %i2, [ %sp + 0x28 ]
40001840:	f8 3b a0 30 	std  %i4, [ %sp + 0x30 ]
40001844:	fc 3b a0 38 	std  %fp, [ %sp + 0x38 ]
40001848:	81 e8 00 00 	restore 
4000184c:	81 90 00 13 	mov  %l3, %wim
40001850:	01 00 00 00 	nop 
40001854:	01 00 00 00 	nop 
40001858:	01 00 00 00 	nop 
4000185c:	81 c4 40 00 	jmp  %l1
40001860:	81 cc 80 00 	rett  %l2

40001864 <window_underflow_trap_handler>:
40001864:	a7 50 00 00 	rd  %wim, %l3
40001868:	a9 34 e0 07 	srl  %l3, 7, %l4
4000186c:	a7 2c e0 01 	sll  %l3, 1, %l3
40001870:	a6 14 c0 14 	or  %l3, %l4, %l3
40001874:	a6 0c e0 ff 	and  %l3, 0xff, %l3
40001878:	81 90 00 00 	mov  %g0, %wim
4000187c:	01 00 00 00 	nop 
40001880:	01 00 00 00 	nop 
40001884:	01 00 00 00 	nop 
40001888:	81 e8 00 00 	restore 
4000188c:	81 e8 00 00 	restore 
40001890:	e0 1b a0 00 	ldd  [ %sp ], %l0
40001894:	e4 1b a0 08 	ldd  [ %sp + 8 ], %l2
40001898:	e8 1b a0 10 	ldd  [ %sp + 0x10 ], %l4
4000189c:	ec 1b a0 18 	ldd  [ %sp + 0x18 ], %l6
400018a0:	f0 1b a0 20 	ldd  [ %sp + 0x20 ], %i0
400018a4:	f4 1b a0 28 	ldd  [ %sp + 0x28 ], %i2
400018a8:	f8 1b a0 30 	ldd  [ %sp + 0x30 ], %i4
400018ac:	fc 1b a0 38 	ldd  [ %sp + 0x38 ], %fp
400018b0:	81 e0 00 00 	save 
400018b4:	81 e0 00 00 	save 
400018b8:	81 90 00 13 	mov  %l3, %wim
400018bc:	01 00 00 00 	nop 
400018c0:	01 00 00 00 	nop 
400018c4:	01 00 00 00 	nop 
400018c8:	81 c4 40 00 	jmp  %l1
400018cc:	81 cc 80 00 	rett  %l2
400018d0:	00 00 00 00 	unimp  0
	...

40002000 <trap_table_base>:
40002000:	91 d0 20 00 	ta  0
40002004:	01 00 00 00 	nop 
40002008:	01 00 00 00 	nop 
4000200c:	01 00 00 00 	nop 

40002010 <HW_trap_0x01>:
40002010:	91 d0 20 00 	ta  0
40002014:	01 00 00 00 	nop 
40002018:	01 00 00 00 	nop 
4000201c:	01 00 00 00 	nop 

40002020 <HW_trap_0x02>:
40002020:	91 d0 20 00 	ta  0
40002024:	01 00 00 00 	nop 
40002028:	01 00 00 00 	nop 
4000202c:	01 00 00 00 	nop 

40002030 <HW_trap_0x03>:
40002030:	91 d0 20 00 	ta  0
40002034:	01 00 00 00 	nop 
40002038:	01 00 00 00 	nop 
4000203c:	01 00 00 00 	nop 

40002040 <HW_trap_0x04>:
40002040:	91 d0 20 00 	ta  0
40002044:	01 00 00 00 	nop 
40002048:	01 00 00 00 	nop 
4000204c:	01 00 00 00 	nop 

40002050 <HW_trap_0x05>:
40002050:	10 bf fd ec 	b  40001800 <window_overflow_trap_handler>
40002054:	01 00 00 00 	nop 
40002058:	01 00 00 00 	nop 
4000205c:	01 00 00 00 	nop 

40002060 <HW_trap_0x06>:
40002060:	10 bf fe 01 	b  40001864 <window_underflow_trap_handler>
40002064:	01 00 00 00 	nop 
40002068:	01 00 00 00 	nop 
4000206c:	01 00 00 00 	nop 

40002070 <HW_trap_0x07>:
40002070:	91 d0 20 00 	ta  0
40002074:	01 00 00 00 	nop 
40002078:	01 00 00 00 	nop 
4000207c:	01 00 00 00 	nop 

40002080 <HW_trap_0x08>:
40002080:	91 d0 20 00 	ta  0
40002084:	01 00 00 00 	nop 
40002088:	01 00 00 00 	nop 
4000208c:	01 00 00 00 	nop 

40002090 <HW_trap_0x09>:
40002090:	91 d0 20 00 	ta  0
40002094:	01 00 00 00 	nop 
40002098:	01 00 00 00 	nop 
4000209c:	01 00 00 00 	nop 

400020a0 <HW_trap_0x0a>:
400020a0:	91 d0 20 00 	ta  0
400020a4:	01 00 00 00 	nop 
400020a8:	01 00 00 00 	nop 
400020ac:	01 00 00 00 	nop 

400020b0 <HW_trap_0x0b>:
400020b0:	91 d0 20 00 	ta  0
400020b4:	01 00 00 00 	nop 
400020b8:	01 00 00 00 	nop 
400020bc:	01 00 00 00 	nop 

400020c0 <HW_trap_0x0c>:
400020c0:	91 d0 20 00 	ta  0
400020c4:	01 00 00 00 	nop 
400020c8:	01 00 00 00 	nop 
400020cc:	01 00 00 00 	nop 

400020d0 <HW_trap_0x0d>:
400020d0:	91 d0 20 00 	ta  0
400020d4:	01 00 00 00 	nop 
400020d8:	01 00 00 00 	nop 
400020dc:	01 00 00 00 	nop 

400020e0 <HW_trap_0x0e>:
400020e0:	91 d0 20 00 	ta  0
400020e4:	01 00 00 00 	nop 
400020e8:	01 00 00 00 	nop 
400020ec:	01 00 00 00 	nop 

400020f0 <HW_trap_0x0f>:
400020f0:	91 d0 20 00 	ta  0
400020f4:	01 00 00 00 	nop 
400020f8:	01 00 00 00 	nop 
400020fc:	01 00 00 00 	nop 

40002100 <HW_trap_0x10>:
40002100:	91 d0 20 00 	ta  0
40002104:	01 00 00 00 	nop 
40002108:	01 00 00 00 	nop 
4000210c:	01 00 00 00 	nop 

40002110 <HW_trap_0x11>:
40002110:	91 d0 20 00 	ta  0
40002114:	01 00 00 00 	nop 
40002118:	01 00 00 00 	nop 
4000211c:	01 00 00 00 	nop 

40002120 <HW_trap_0x12>:
40002120:	91 d0 20 00 	ta  0
40002124:	01 00 00 00 	nop 
40002128:	01 00 00 00 	nop 
4000212c:	01 00 00 00 	nop 

40002130 <HW_trap_0x13>:
40002130:	91 d0 20 00 	ta  0
40002134:	01 00 00 00 	nop 
40002138:	01 00 00 00 	nop 
4000213c:	01 00 00 00 	nop 

40002140 <HW_trap_0x14>:
40002140:	91 d0 20 00 	ta  0
40002144:	01 00 00 00 	nop 
40002148:	01 00 00 00 	nop 
4000214c:	01 00 00 00 	nop 

40002150 <HW_trap_0x15>:
40002150:	91 d0 20 00 	ta  0
40002154:	01 00 00 00 	nop 
40002158:	01 00 00 00 	nop 
4000215c:	01 00 00 00 	nop 

40002160 <HW_trap_0x16>:
40002160:	91 d0 20 00 	ta  0
40002164:	01 00 00 00 	nop 
40002168:	01 00 00 00 	nop 
4000216c:	01 00 00 00 	nop 

40002170 <HW_trap_0x17>:
40002170:	91 d0 20 00 	ta  0
40002174:	01 00 00 00 	nop 
40002178:	01 00 00 00 	nop 
4000217c:	01 00 00 00 	nop 

40002180 <HW_trap_0x18>:
40002180:	91 d0 20 00 	ta  0
40002184:	01 00 00 00 	nop 
40002188:	01 00 00 00 	nop 
4000218c:	01 00 00 00 	nop 

40002190 <HW_trap_0x19>:
40002190:	91 d0 20 00 	ta  0
40002194:	01 00 00 00 	nop 
40002198:	01 00 00 00 	nop 
4000219c:	01 00 00 00 	nop 

400021a0 <HW_trap_0x1a>:
400021a0:	91 d0 20 00 	ta  0
400021a4:	01 00 00 00 	nop 
400021a8:	01 00 00 00 	nop 
400021ac:	01 00 00 00 	nop 

400021b0 <HW_trap_0x1b>:
400021b0:	91 d0 20 00 	ta  0
400021b4:	01 00 00 00 	nop 
400021b8:	01 00 00 00 	nop 
400021bc:	01 00 00 00 	nop 

400021c0 <HW_trap_0x1c>:
400021c0:	91 d0 20 00 	ta  0
400021c4:	01 00 00 00 	nop 
400021c8:	01 00 00 00 	nop 
400021cc:	01 00 00 00 	nop 

400021d0 <HW_trap_0x1d>:
400021d0:	91 d0 20 00 	ta  0
400021d4:	01 00 00 00 	nop 
400021d8:	01 00 00 00 	nop 
400021dc:	01 00 00 00 	nop 

400021e0 <HW_trap_0x1e>:
400021e0:	91 d0 20 00 	ta  0
400021e4:	01 00 00 00 	nop 
400021e8:	01 00 00 00 	nop 
400021ec:	01 00 00 00 	nop 

400021f0 <HW_trap_0x1f>:
400021f0:	91 d0 20 00 	ta  0
400021f4:	01 00 00 00 	nop 
400021f8:	01 00 00 00 	nop 
400021fc:	01 00 00 00 	nop 

40002200 <HW_trap_0x20>:
40002200:	91 d0 20 00 	ta  0
40002204:	01 00 00 00 	nop 
40002208:	01 00 00 00 	nop 
4000220c:	01 00 00 00 	nop 

40002210 <HW_trap_0x21>:
40002210:	91 d0 20 00 	ta  0
40002214:	01 00 00 00 	nop 
40002218:	01 00 00 00 	nop 
4000221c:	01 00 00 00 	nop 

40002220 <HW_trap_0x22>:
40002220:	91 d0 20 00 	ta  0
40002224:	01 00 00 00 	nop 
40002228:	01 00 00 00 	nop 
4000222c:	01 00 00 00 	nop 

40002230 <HW_trap_0x23>:
40002230:	91 d0 20 00 	ta  0
40002234:	01 00 00 00 	nop 
40002238:	01 00 00 00 	nop 
4000223c:	01 00 00 00 	nop 

40002240 <HW_trap_0x24>:
40002240:	91 d0 20 00 	ta  0
40002244:	01 00 00 00 	nop 
40002248:	01 00 00 00 	nop 
4000224c:	01 00 00 00 	nop 

40002250 <HW_trap_0x25>:
40002250:	91 d0 20 00 	ta  0
40002254:	01 00 00 00 	nop 
40002258:	01 00 00 00 	nop 
4000225c:	01 00 00 00 	nop 

40002260 <HW_trap_0x26>:
40002260:	91 d0 20 00 	ta  0
40002264:	01 00 00 00 	nop 
40002268:	01 00 00 00 	nop 
4000226c:	01 00 00 00 	nop 

40002270 <HW_trap_0x27>:
40002270:	91 d0 20 00 	ta  0
40002274:	01 00 00 00 	nop 
40002278:	01 00 00 00 	nop 
4000227c:	01 00 00 00 	nop 

40002280 <HW_trap_0x28>:
40002280:	91 d0 20 00 	ta  0
40002284:	01 00 00 00 	nop 
40002288:	01 00 00 00 	nop 
4000228c:	01 00 00 00 	nop 

40002290 <HW_trap_0x29>:
40002290:	91 d0 20 00 	ta  0
40002294:	01 00 00 00 	nop 
40002298:	01 00 00 00 	nop 
4000229c:	01 00 00 00 	nop 

400022a0 <HW_trap_0x2a>:
400022a0:	91 d0 20 00 	ta  0
400022a4:	01 00 00 00 	nop 
400022a8:	01 00 00 00 	nop 
400022ac:	01 00 00 00 	nop 

400022b0 <HW_trap_0x2b>:
400022b0:	91 d0 20 00 	ta  0
400022b4:	01 00 00 00 	nop 
400022b8:	01 00 00 00 	nop 
400022bc:	01 00 00 00 	nop 

400022c0 <HW_trap_0x2c>:
400022c0:	91 d0 20 00 	ta  0
400022c4:	01 00 00 00 	nop 
400022c8:	01 00 00 00 	nop 
400022cc:	01 00 00 00 	nop 

400022d0 <HW_trap_0x2d>:
400022d0:	91 d0 20 00 	ta  0
400022d4:	01 00 00 00 	nop 
400022d8:	01 00 00 00 	nop 
400022dc:	01 00 00 00 	nop 

400022e0 <HW_trap_0x2e>:
400022e0:	91 d0 20 00 	ta  0
400022e4:	01 00 00 00 	nop 
400022e8:	01 00 00 00 	nop 
400022ec:	01 00 00 00 	nop 

400022f0 <HW_trap_0x2f>:
400022f0:	91 d0 20 00 	ta  0
400022f4:	01 00 00 00 	nop 
400022f8:	01 00 00 00 	nop 
400022fc:	01 00 00 00 	nop 

40002300 <HW_trap_0x30>:
40002300:	91 d0 20 00 	ta  0
40002304:	01 00 00 00 	nop 
40002308:	01 00 00 00 	nop 
4000230c:	01 00 00 00 	nop 

40002310 <HW_trap_0x31>:
40002310:	91 d0 20 00 	ta  0
40002314:	01 00 00 00 	nop 
40002318:	01 00 00 00 	nop 
4000231c:	01 00 00 00 	nop 

40002320 <HW_trap_0x32>:
40002320:	91 d0 20 00 	ta  0
40002324:	01 00 00 00 	nop 
40002328:	01 00 00 00 	nop 
4000232c:	01 00 00 00 	nop 

40002330 <HW_trap_0x33>:
40002330:	91 d0 20 00 	ta  0
40002334:	01 00 00 00 	nop 
40002338:	01 00 00 00 	nop 
4000233c:	01 00 00 00 	nop 

40002340 <HW_trap_0x34>:
40002340:	91 d0 20 00 	ta  0
40002344:	01 00 00 00 	nop 
40002348:	01 00 00 00 	nop 
4000234c:	01 00 00 00 	nop 

40002350 <HW_trap_0x35>:
40002350:	91 d0 20 00 	ta  0
40002354:	01 00 00 00 	nop 
40002358:	01 00 00 00 	nop 
4000235c:	01 00 00 00 	nop 

40002360 <HW_trap_0x36>:
40002360:	91 d0 20 00 	ta  0
40002364:	01 00 00 00 	nop 
40002368:	01 00 00 00 	nop 
4000236c:	01 00 00 00 	nop 

40002370 <HW_trap_0x37>:
40002370:	91 d0 20 00 	ta  0
40002374:	01 00 00 00 	nop 
40002378:	01 00 00 00 	nop 
4000237c:	01 00 00 00 	nop 

40002380 <HW_trap_0x38>:
40002380:	91 d0 20 00 	ta  0
40002384:	01 00 00 00 	nop 
40002388:	01 00 00 00 	nop 
4000238c:	01 00 00 00 	nop 

40002390 <HW_trap_0x39>:
40002390:	91 d0 20 00 	ta  0
40002394:	01 00 00 00 	nop 
40002398:	01 00 00 00 	nop 
4000239c:	01 00 00 00 	nop 

400023a0 <HW_trap_0x3a>:
400023a0:	91 d0 20 00 	ta  0
400023a4:	01 00 00 00 	nop 
400023a8:	01 00 00 00 	nop 
400023ac:	01 00 00 00 	nop 

400023b0 <HW_trap_0x3b>:
400023b0:	91 d0 20 00 	ta  0
400023b4:	01 00 00 00 	nop 
400023b8:	01 00 00 00 	nop 
400023bc:	01 00 00 00 	nop 

400023c0 <HW_trap_0x3c>:
400023c0:	91 d0 20 00 	ta  0
400023c4:	01 00 00 00 	nop 
400023c8:	01 00 00 00 	nop 
400023cc:	01 00 00 00 	nop 

400023d0 <HW_trap_0x3d>:
400023d0:	91 d0 20 00 	ta  0
400023d4:	01 00 00 00 	nop 
400023d8:	01 00 00 00 	nop 
400023dc:	01 00 00 00 	nop 

400023e0 <HW_trap_0x3e>:
400023e0:	91 d0 20 00 	ta  0
400023e4:	01 00 00 00 	nop 
400023e8:	01 00 00 00 	nop 
400023ec:	01 00 00 00 	nop 

400023f0 <HW_trap_0x3f>:
400023f0:	91 d0 20 00 	ta  0
400023f4:	01 00 00 00 	nop 
400023f8:	01 00 00 00 	nop 
400023fc:	01 00 00 00 	nop 

40002400 <HW_trap_0x40>:
40002400:	91 d0 20 00 	ta  0
40002404:	01 00 00 00 	nop 
40002408:	01 00 00 00 	nop 
4000240c:	01 00 00 00 	nop 

40002410 <HW_trap_0x41>:
40002410:	91 d0 20 00 	ta  0
40002414:	01 00 00 00 	nop 
40002418:	01 00 00 00 	nop 
4000241c:	01 00 00 00 	nop 

40002420 <HW_trap_0x42>:
40002420:	91 d0 20 00 	ta  0
40002424:	01 00 00 00 	nop 
40002428:	01 00 00 00 	nop 
4000242c:	01 00 00 00 	nop 

40002430 <HW_trap_0x43>:
40002430:	91 d0 20 00 	ta  0
40002434:	01 00 00 00 	nop 
40002438:	01 00 00 00 	nop 
4000243c:	01 00 00 00 	nop 

40002440 <HW_trap_0x44>:
40002440:	91 d0 20 00 	ta  0
40002444:	01 00 00 00 	nop 
40002448:	01 00 00 00 	nop 
4000244c:	01 00 00 00 	nop 

40002450 <HW_trap_0x45>:
40002450:	91 d0 20 00 	ta  0
40002454:	01 00 00 00 	nop 
40002458:	01 00 00 00 	nop 
4000245c:	01 00 00 00 	nop 

40002460 <HW_trap_0x46>:
40002460:	91 d0 20 00 	ta  0
40002464:	01 00 00 00 	nop 
40002468:	01 00 00 00 	nop 
4000246c:	01 00 00 00 	nop 

40002470 <HW_trap_0x47>:
40002470:	91 d0 20 00 	ta  0
40002474:	01 00 00 00 	nop 
40002478:	01 00 00 00 	nop 
4000247c:	01 00 00 00 	nop 

40002480 <HW_trap_0x48>:
40002480:	91 d0 20 00 	ta  0
40002484:	01 00 00 00 	nop 
40002488:	01 00 00 00 	nop 
4000248c:	01 00 00 00 	nop 

40002490 <HW_trap_0x49>:
40002490:	91 d0 20 00 	ta  0
40002494:	01 00 00 00 	nop 
40002498:	01 00 00 00 	nop 
4000249c:	01 00 00 00 	nop 

400024a0 <HW_trap_0x4a>:
400024a0:	91 d0 20 00 	ta  0
400024a4:	01 00 00 00 	nop 
400024a8:	01 00 00 00 	nop 
400024ac:	01 00 00 00 	nop 

400024b0 <HW_trap_0x4b>:
400024b0:	91 d0 20 00 	ta  0
400024b4:	01 00 00 00 	nop 
400024b8:	01 00 00 00 	nop 
400024bc:	01 00 00 00 	nop 

400024c0 <HW_trap_0x4c>:
400024c0:	91 d0 20 00 	ta  0
400024c4:	01 00 00 00 	nop 
400024c8:	01 00 00 00 	nop 
400024cc:	01 00 00 00 	nop 

400024d0 <HW_trap_0x4d>:
400024d0:	91 d0 20 00 	ta  0
400024d4:	01 00 00 00 	nop 
400024d8:	01 00 00 00 	nop 
400024dc:	01 00 00 00 	nop 

400024e0 <HW_trap_0x4e>:
400024e0:	91 d0 20 00 	ta  0
400024e4:	01 00 00 00 	nop 
400024e8:	01 00 00 00 	nop 
400024ec:	01 00 00 00 	nop 

400024f0 <HW_trap_0x4f>:
400024f0:	91 d0 20 00 	ta  0
400024f4:	01 00 00 00 	nop 
400024f8:	01 00 00 00 	nop 
400024fc:	01 00 00 00 	nop 

40002500 <HW_trap_0x50>:
40002500:	91 d0 20 00 	ta  0
40002504:	01 00 00 00 	nop 
40002508:	01 00 00 00 	nop 
4000250c:	01 00 00 00 	nop 

40002510 <HW_trap_0x51>:
40002510:	91 d0 20 00 	ta  0
40002514:	01 00 00 00 	nop 
40002518:	01 00 00 00 	nop 
4000251c:	01 00 00 00 	nop 

40002520 <HW_trap_0x52>:
40002520:	91 d0 20 00 	ta  0
40002524:	01 00 00 00 	nop 
40002528:	01 00 00 00 	nop 
4000252c:	01 00 00 00 	nop 

40002530 <HW_trap_0x53>:
40002530:	91 d0 20 00 	ta  0
40002534:	01 00 00 00 	nop 
40002538:	01 00 00 00 	nop 
4000253c:	01 00 00 00 	nop 

40002540 <HW_trap_0x54>:
40002540:	91 d0 20 00 	ta  0
40002544:	01 00 00 00 	nop 
40002548:	01 00 00 00 	nop 
4000254c:	01 00 00 00 	nop 

40002550 <HW_trap_0x55>:
40002550:	91 d0 20 00 	ta  0
40002554:	01 00 00 00 	nop 
40002558:	01 00 00 00 	nop 
4000255c:	01 00 00 00 	nop 

40002560 <HW_trap_0x56>:
40002560:	91 d0 20 00 	ta  0
40002564:	01 00 00 00 	nop 
40002568:	01 00 00 00 	nop 
4000256c:	01 00 00 00 	nop 

40002570 <HW_trap_0x57>:
40002570:	91 d0 20 00 	ta  0
40002574:	01 00 00 00 	nop 
40002578:	01 00 00 00 	nop 
4000257c:	01 00 00 00 	nop 

40002580 <HW_trap_0x58>:
40002580:	91 d0 20 00 	ta  0
40002584:	01 00 00 00 	nop 
40002588:	01 00 00 00 	nop 
4000258c:	01 00 00 00 	nop 

40002590 <HW_trap_0x59>:
40002590:	91 d0 20 00 	ta  0
40002594:	01 00 00 00 	nop 
40002598:	01 00 00 00 	nop 
4000259c:	01 00 00 00 	nop 

400025a0 <HW_trap_0x5a>:
400025a0:	91 d0 20 00 	ta  0
400025a4:	01 00 00 00 	nop 
400025a8:	01 00 00 00 	nop 
400025ac:	01 00 00 00 	nop 

400025b0 <HW_trap_0x5b>:
400025b0:	91 d0 20 00 	ta  0
400025b4:	01 00 00 00 	nop 
400025b8:	01 00 00 00 	nop 
400025bc:	01 00 00 00 	nop 

400025c0 <HW_trap_0x5c>:
400025c0:	91 d0 20 00 	ta  0
400025c4:	01 00 00 00 	nop 
400025c8:	01 00 00 00 	nop 
400025cc:	01 00 00 00 	nop 

400025d0 <HW_trap_0x5d>:
400025d0:	91 d0 20 00 	ta  0
400025d4:	01 00 00 00 	nop 
400025d8:	01 00 00 00 	nop 
400025dc:	01 00 00 00 	nop 

400025e0 <HW_trap_0x5e>:
400025e0:	91 d0 20 00 	ta  0
400025e4:	01 00 00 00 	nop 
400025e8:	01 00 00 00 	nop 
400025ec:	01 00 00 00 	nop 

400025f0 <HW_trap_0x5f>:
400025f0:	91 d0 20 00 	ta  0
400025f4:	01 00 00 00 	nop 
400025f8:	01 00 00 00 	nop 
400025fc:	01 00 00 00 	nop 

40002600 <HW_trap_0x60>:
40002600:	91 d0 20 00 	ta  0
40002604:	01 00 00 00 	nop 
40002608:	01 00 00 00 	nop 
4000260c:	01 00 00 00 	nop 

40002610 <HW_trap_0x61>:
40002610:	91 d0 20 00 	ta  0
40002614:	01 00 00 00 	nop 
40002618:	01 00 00 00 	nop 
4000261c:	01 00 00 00 	nop 

40002620 <HW_trap_0x62>:
40002620:	91 d0 20 00 	ta  0
40002624:	01 00 00 00 	nop 
40002628:	01 00 00 00 	nop 
4000262c:	01 00 00 00 	nop 

40002630 <HW_trap_0x63>:
40002630:	91 d0 20 00 	ta  0
40002634:	01 00 00 00 	nop 
40002638:	01 00 00 00 	nop 
4000263c:	01 00 00 00 	nop 

40002640 <HW_trap_0x64>:
40002640:	91 d0 20 00 	ta  0
40002644:	01 00 00 00 	nop 
40002648:	01 00 00 00 	nop 
4000264c:	01 00 00 00 	nop 

40002650 <HW_trap_0x65>:
40002650:	91 d0 20 00 	ta  0
40002654:	01 00 00 00 	nop 
40002658:	01 00 00 00 	nop 
4000265c:	01 00 00 00 	nop 

40002660 <HW_trap_0x66>:
40002660:	91 d0 20 00 	ta  0
40002664:	01 00 00 00 	nop 
40002668:	01 00 00 00 	nop 
4000266c:	01 00 00 00 	nop 

40002670 <HW_trap_0x67>:
40002670:	91 d0 20 00 	ta  0
40002674:	01 00 00 00 	nop 
40002678:	01 00 00 00 	nop 
4000267c:	01 00 00 00 	nop 

40002680 <HW_trap_0x68>:
40002680:	91 d0 20 00 	ta  0
40002684:	01 00 00 00 	nop 
40002688:	01 00 00 00 	nop 
4000268c:	01 00 00 00 	nop 

40002690 <HW_trap_0x69>:
40002690:	91 d0 20 00 	ta  0
40002694:	01 00 00 00 	nop 
40002698:	01 00 00 00 	nop 
4000269c:	01 00 00 00 	nop 

400026a0 <HW_trap_0x6a>:
400026a0:	91 d0 20 00 	ta  0
400026a4:	01 00 00 00 	nop 
400026a8:	01 00 00 00 	nop 
400026ac:	01 00 00 00 	nop 

400026b0 <HW_trap_0x6b>:
400026b0:	91 d0 20 00 	ta  0
400026b4:	01 00 00 00 	nop 
400026b8:	01 00 00 00 	nop 
400026bc:	01 00 00 00 	nop 

400026c0 <HW_trap_0x6c>:
400026c0:	91 d0 20 00 	ta  0
400026c4:	01 00 00 00 	nop 
400026c8:	01 00 00 00 	nop 
400026cc:	01 00 00 00 	nop 

400026d0 <HW_trap_0x6d>:
400026d0:	91 d0 20 00 	ta  0
400026d4:	01 00 00 00 	nop 
400026d8:	01 00 00 00 	nop 
400026dc:	01 00 00 00 	nop 

400026e0 <HW_trap_0x6e>:
400026e0:	91 d0 20 00 	ta  0
400026e4:	01 00 00 00 	nop 
400026e8:	01 00 00 00 	nop 
400026ec:	01 00 00 00 	nop 

400026f0 <HW_trap_0x6f>:
400026f0:	91 d0 20 00 	ta  0
400026f4:	01 00 00 00 	nop 
400026f8:	01 00 00 00 	nop 
400026fc:	01 00 00 00 	nop 

40002700 <HW_trap_0x70>:
40002700:	91 d0 20 00 	ta  0
40002704:	01 00 00 00 	nop 
40002708:	01 00 00 00 	nop 
4000270c:	01 00 00 00 	nop 

40002710 <HW_trap_0x71>:
40002710:	91 d0 20 00 	ta  0
40002714:	01 00 00 00 	nop 
40002718:	01 00 00 00 	nop 
4000271c:	01 00 00 00 	nop 

40002720 <HW_trap_0x72>:
40002720:	91 d0 20 00 	ta  0
40002724:	01 00 00 00 	nop 
40002728:	01 00 00 00 	nop 
4000272c:	01 00 00 00 	nop 

40002730 <HW_trap_0x73>:
40002730:	91 d0 20 00 	ta  0
40002734:	01 00 00 00 	nop 
40002738:	01 00 00 00 	nop 
4000273c:	01 00 00 00 	nop 

40002740 <HW_trap_0x74>:
40002740:	91 d0 20 00 	ta  0
40002744:	01 00 00 00 	nop 
40002748:	01 00 00 00 	nop 
4000274c:	01 00 00 00 	nop 

40002750 <HW_trap_0x75>:
40002750:	91 d0 20 00 	ta  0
40002754:	01 00 00 00 	nop 
40002758:	01 00 00 00 	nop 
4000275c:	01 00 00 00 	nop 

40002760 <HW_trap_0x76>:
40002760:	91 d0 20 00 	ta  0
40002764:	01 00 00 00 	nop 
40002768:	01 00 00 00 	nop 
4000276c:	01 00 00 00 	nop 

40002770 <HW_trap_0x77>:
40002770:	91 d0 20 00 	ta  0
40002774:	01 00 00 00 	nop 
40002778:	01 00 00 00 	nop 
4000277c:	01 00 00 00 	nop 

40002780 <HW_trap_0x78>:
40002780:	91 d0 20 00 	ta  0
40002784:	01 00 00 00 	nop 
40002788:	01 00 00 00 	nop 
4000278c:	01 00 00 00 	nop 

40002790 <HW_trap_0x79>:
40002790:	91 d0 20 00 	ta  0
40002794:	01 00 00 00 	nop 
40002798:	01 00 00 00 	nop 
4000279c:	01 00 00 00 	nop 

400027a0 <HW_trap_0x7a>:
400027a0:	91 d0 20 00 	ta  0
400027a4:	01 00 00 00 	nop 
400027a8:	01 00 00 00 	nop 
400027ac:	01 00 00 00 	nop 

400027b0 <HW_trap_0x7b>:
400027b0:	91 d0 20 00 	ta  0
400027b4:	01 00 00 00 	nop 
400027b8:	01 00 00 00 	nop 
400027bc:	01 00 00 00 	nop 

400027c0 <HW_trap_0x7c>:
400027c0:	91 d0 20 00 	ta  0
400027c4:	01 00 00 00 	nop 
400027c8:	01 00 00 00 	nop 
400027cc:	01 00 00 00 	nop 

400027d0 <HW_trap_0x7d>:
400027d0:	91 d0 20 00 	ta  0
400027d4:	01 00 00 00 	nop 
400027d8:	01 00 00 00 	nop 
400027dc:	01 00 00 00 	nop 

400027e0 <HW_trap_0x7e>:
400027e0:	91 d0 20 00 	ta  0
400027e4:	01 00 00 00 	nop 
400027e8:	01 00 00 00 	nop 
400027ec:	01 00 00 00 	nop 

400027f0 <HW_trap_0x7f>:
400027f0:	91 d0 20 00 	ta  0
400027f4:	01 00 00 00 	nop 
400027f8:	01 00 00 00 	nop 
400027fc:	01 00 00 00 	nop 

40002800 <SW_trap_0x80>:
40002800:	91 d0 20 00 	ta  0
40002804:	01 00 00 00 	nop 
40002808:	01 00 00 00 	nop 
4000280c:	01 00 00 00 	nop 

40002810 <SW_trap_0x81>:
40002810:	91 d0 20 00 	ta  0
40002814:	01 00 00 00 	nop 
40002818:	01 00 00 00 	nop 
4000281c:	01 00 00 00 	nop 

40002820 <SW_trap_0x82>:
40002820:	91 d0 20 00 	ta  0
40002824:	01 00 00 00 	nop 
40002828:	01 00 00 00 	nop 
4000282c:	01 00 00 00 	nop 

40002830 <SW_trap_0x83>:
40002830:	91 d0 20 00 	ta  0
40002834:	01 00 00 00 	nop 
40002838:	01 00 00 00 	nop 
4000283c:	01 00 00 00 	nop 

40002840 <SW_trap_0x84>:
40002840:	91 d0 20 00 	ta  0
40002844:	01 00 00 00 	nop 
40002848:	01 00 00 00 	nop 
4000284c:	01 00 00 00 	nop 

40002850 <SW_trap_0x85>:
40002850:	91 d0 20 00 	ta  0
40002854:	01 00 00 00 	nop 
40002858:	01 00 00 00 	nop 
4000285c:	01 00 00 00 	nop 

40002860 <SW_trap_0x86>:
40002860:	91 d0 20 00 	ta  0
40002864:	01 00 00 00 	nop 
40002868:	01 00 00 00 	nop 
4000286c:	01 00 00 00 	nop 

40002870 <SW_trap_0x87>:
40002870:	91 d0 20 00 	ta  0
40002874:	01 00 00 00 	nop 
40002878:	01 00 00 00 	nop 
4000287c:	01 00 00 00 	nop 

40002880 <SW_trap_0x88>:
40002880:	91 d0 20 00 	ta  0
40002884:	01 00 00 00 	nop 
40002888:	01 00 00 00 	nop 
4000288c:	01 00 00 00 	nop 

40002890 <SW_trap_0x89>:
40002890:	91 d0 20 00 	ta  0
40002894:	01 00 00 00 	nop 
40002898:	01 00 00 00 	nop 
4000289c:	01 00 00 00 	nop 

400028a0 <SW_trap_0x8a>:
400028a0:	91 d0 20 00 	ta  0
400028a4:	01 00 00 00 	nop 
400028a8:	01 00 00 00 	nop 
400028ac:	01 00 00 00 	nop 

400028b0 <SW_trap_0x8b>:
400028b0:	91 d0 20 00 	ta  0
400028b4:	01 00 00 00 	nop 
400028b8:	01 00 00 00 	nop 
400028bc:	01 00 00 00 	nop 

400028c0 <SW_trap_0x8c>:
400028c0:	91 d0 20 00 	ta  0
400028c4:	01 00 00 00 	nop 
400028c8:	01 00 00 00 	nop 
400028cc:	01 00 00 00 	nop 

400028d0 <SW_trap_0x8d>:
400028d0:	91 d0 20 00 	ta  0
400028d4:	01 00 00 00 	nop 
400028d8:	01 00 00 00 	nop 
400028dc:	01 00 00 00 	nop 

400028e0 <SW_trap_0x8e>:
400028e0:	91 d0 20 00 	ta  0
400028e4:	01 00 00 00 	nop 
400028e8:	01 00 00 00 	nop 
400028ec:	01 00 00 00 	nop 

400028f0 <SW_trap_0x8f>:
400028f0:	91 d0 20 00 	ta  0
400028f4:	01 00 00 00 	nop 
400028f8:	01 00 00 00 	nop 
400028fc:	01 00 00 00 	nop 

40002900 <SW_trap_0x90>:
40002900:	91 d0 20 00 	ta  0
40002904:	01 00 00 00 	nop 
40002908:	01 00 00 00 	nop 
4000290c:	01 00 00 00 	nop 

40002910 <SW_trap_0x91>:
40002910:	91 d0 20 00 	ta  0
40002914:	01 00 00 00 	nop 
40002918:	01 00 00 00 	nop 
4000291c:	01 00 00 00 	nop 

40002920 <SW_trap_0x92>:
40002920:	91 d0 20 00 	ta  0
40002924:	01 00 00 00 	nop 
40002928:	01 00 00 00 	nop 
4000292c:	01 00 00 00 	nop 

40002930 <SW_trap_0x93>:
40002930:	91 d0 20 00 	ta  0
40002934:	01 00 00 00 	nop 
40002938:	01 00 00 00 	nop 
4000293c:	01 00 00 00 	nop 

40002940 <SW_trap_0x94>:
40002940:	91 d0 20 00 	ta  0
40002944:	01 00 00 00 	nop 
40002948:	01 00 00 00 	nop 
4000294c:	01 00 00 00 	nop 

40002950 <SW_trap_0x95>:
40002950:	91 d0 20 00 	ta  0
40002954:	01 00 00 00 	nop 
40002958:	01 00 00 00 	nop 
4000295c:	01 00 00 00 	nop 

40002960 <SW_trap_0x96>:
40002960:	91 d0 20 00 	ta  0
40002964:	01 00 00 00 	nop 
40002968:	01 00 00 00 	nop 
4000296c:	01 00 00 00 	nop 

40002970 <SW_trap_0x97>:
40002970:	91 d0 20 00 	ta  0
40002974:	01 00 00 00 	nop 
40002978:	01 00 00 00 	nop 
4000297c:	01 00 00 00 	nop 

40002980 <SW_trap_0x98>:
40002980:	91 d0 20 00 	ta  0
40002984:	01 00 00 00 	nop 
40002988:	01 00 00 00 	nop 
4000298c:	01 00 00 00 	nop 

40002990 <SW_trap_0x99>:
40002990:	91 d0 20 00 	ta  0
40002994:	01 00 00 00 	nop 
40002998:	01 00 00 00 	nop 
4000299c:	01 00 00 00 	nop 

400029a0 <SW_trap_0x9a>:
400029a0:	91 d0 20 00 	ta  0
400029a4:	01 00 00 00 	nop 
400029a8:	01 00 00 00 	nop 
400029ac:	01 00 00 00 	nop 

400029b0 <SW_trap_0x9b>:
400029b0:	91 d0 20 00 	ta  0
400029b4:	01 00 00 00 	nop 
400029b8:	01 00 00 00 	nop 
400029bc:	01 00 00 00 	nop 

400029c0 <SW_trap_0x9c>:
400029c0:	91 d0 20 00 	ta  0
400029c4:	01 00 00 00 	nop 
400029c8:	01 00 00 00 	nop 
400029cc:	01 00 00 00 	nop 

400029d0 <SW_trap_0x9d>:
400029d0:	91 d0 20 00 	ta  0
400029d4:	01 00 00 00 	nop 
400029d8:	01 00 00 00 	nop 
400029dc:	01 00 00 00 	nop 

400029e0 <SW_trap_0x9e>:
400029e0:	91 d0 20 00 	ta  0
400029e4:	01 00 00 00 	nop 
400029e8:	01 00 00 00 	nop 
400029ec:	01 00 00 00 	nop 

400029f0 <SW_trap_0x9f>:
400029f0:	91 d0 20 00 	ta  0
400029f4:	01 00 00 00 	nop 
400029f8:	01 00 00 00 	nop 
400029fc:	01 00 00 00 	nop 

40002a00 <SW_trap_0xa0>:
40002a00:	91 d0 20 00 	ta  0
40002a04:	01 00 00 00 	nop 
40002a08:	01 00 00 00 	nop 
40002a0c:	01 00 00 00 	nop 

40002a10 <SW_trap_0xa1>:
40002a10:	91 d0 20 00 	ta  0
40002a14:	01 00 00 00 	nop 
40002a18:	01 00 00 00 	nop 
40002a1c:	01 00 00 00 	nop 

40002a20 <SW_trap_0xa2>:
40002a20:	91 d0 20 00 	ta  0
40002a24:	01 00 00 00 	nop 
40002a28:	01 00 00 00 	nop 
40002a2c:	01 00 00 00 	nop 

40002a30 <SW_trap_0xa3>:
40002a30:	91 d0 20 00 	ta  0
40002a34:	01 00 00 00 	nop 
40002a38:	01 00 00 00 	nop 
40002a3c:	01 00 00 00 	nop 

40002a40 <SW_trap_0xa4>:
40002a40:	91 d0 20 00 	ta  0
40002a44:	01 00 00 00 	nop 
40002a48:	01 00 00 00 	nop 
40002a4c:	01 00 00 00 	nop 

40002a50 <SW_trap_0xa5>:
40002a50:	91 d0 20 00 	ta  0
40002a54:	01 00 00 00 	nop 
40002a58:	01 00 00 00 	nop 
40002a5c:	01 00 00 00 	nop 

40002a60 <SW_trap_0xa6>:
40002a60:	91 d0 20 00 	ta  0
40002a64:	01 00 00 00 	nop 
40002a68:	01 00 00 00 	nop 
40002a6c:	01 00 00 00 	nop 

40002a70 <SW_trap_0xa7>:
40002a70:	91 d0 20 00 	ta  0
40002a74:	01 00 00 00 	nop 
40002a78:	01 00 00 00 	nop 
40002a7c:	01 00 00 00 	nop 

40002a80 <SW_trap_0xa8>:
40002a80:	91 d0 20 00 	ta  0
40002a84:	01 00 00 00 	nop 
40002a88:	01 00 00 00 	nop 
40002a8c:	01 00 00 00 	nop 

40002a90 <SW_trap_0xa9>:
40002a90:	91 d0 20 00 	ta  0
40002a94:	01 00 00 00 	nop 
40002a98:	01 00 00 00 	nop 
40002a9c:	01 00 00 00 	nop 

40002aa0 <SW_trap_0xaa>:
40002aa0:	91 d0 20 00 	ta  0
40002aa4:	01 00 00 00 	nop 
40002aa8:	01 00 00 00 	nop 
40002aac:	01 00 00 00 	nop 

40002ab0 <SW_trap_0xab>:
40002ab0:	91 d0 20 00 	ta  0
40002ab4:	01 00 00 00 	nop 
40002ab8:	01 00 00 00 	nop 
40002abc:	01 00 00 00 	nop 

40002ac0 <SW_trap_0xac>:
40002ac0:	91 d0 20 00 	ta  0
40002ac4:	01 00 00 00 	nop 
40002ac8:	01 00 00 00 	nop 
40002acc:	01 00 00 00 	nop 

40002ad0 <SW_trap_0xad>:
40002ad0:	91 d0 20 00 	ta  0
40002ad4:	01 00 00 00 	nop 
40002ad8:	01 00 00 00 	nop 
40002adc:	01 00 00 00 	nop 

40002ae0 <SW_trap_0xae>:
40002ae0:	91 d0 20 00 	ta  0
40002ae4:	01 00 00 00 	nop 
40002ae8:	01 00 00 00 	nop 
40002aec:	01 00 00 00 	nop 

40002af0 <SW_trap_0xaf>:
40002af0:	91 d0 20 00 	ta  0
40002af4:	01 00 00 00 	nop 
40002af8:	01 00 00 00 	nop 
40002afc:	01 00 00 00 	nop 

40002b00 <SW_trap_0xb0>:
40002b00:	91 d0 20 00 	ta  0
40002b04:	01 00 00 00 	nop 
40002b08:	01 00 00 00 	nop 
40002b0c:	01 00 00 00 	nop 

40002b10 <SW_trap_0xb1>:
40002b10:	91 d0 20 00 	ta  0
40002b14:	01 00 00 00 	nop 
40002b18:	01 00 00 00 	nop 
40002b1c:	01 00 00 00 	nop 

40002b20 <SW_trap_0xb2>:
40002b20:	91 d0 20 00 	ta  0
40002b24:	01 00 00 00 	nop 
40002b28:	01 00 00 00 	nop 
40002b2c:	01 00 00 00 	nop 

40002b30 <SW_trap_0xb3>:
40002b30:	91 d0 20 00 	ta  0
40002b34:	01 00 00 00 	nop 
40002b38:	01 00 00 00 	nop 
40002b3c:	01 00 00 00 	nop 

40002b40 <SW_trap_0xb4>:
40002b40:	91 d0 20 00 	ta  0
40002b44:	01 00 00 00 	nop 
40002b48:	01 00 00 00 	nop 
40002b4c:	01 00 00 00 	nop 

40002b50 <SW_trap_0xb5>:
40002b50:	91 d0 20 00 	ta  0
40002b54:	01 00 00 00 	nop 
40002b58:	01 00 00 00 	nop 
40002b5c:	01 00 00 00 	nop 

40002b60 <SW_trap_0xb6>:
40002b60:	91 d0 20 00 	ta  0
40002b64:	01 00 00 00 	nop 
40002b68:	01 00 00 00 	nop 
40002b6c:	01 00 00 00 	nop 

40002b70 <SW_trap_0xb7>:
40002b70:	91 d0 20 00 	ta  0
40002b74:	01 00 00 00 	nop 
40002b78:	01 00 00 00 	nop 
40002b7c:	01 00 00 00 	nop 

40002b80 <SW_trap_0xb8>:
40002b80:	91 d0 20 00 	ta  0
40002b84:	01 00 00 00 	nop 
40002b88:	01 00 00 00 	nop 
40002b8c:	01 00 00 00 	nop 

40002b90 <SW_trap_0xb9>:
40002b90:	91 d0 20 00 	ta  0
40002b94:	01 00 00 00 	nop 
40002b98:	01 00 00 00 	nop 
40002b9c:	01 00 00 00 	nop 

40002ba0 <SW_trap_0xba>:
40002ba0:	91 d0 20 00 	ta  0
40002ba4:	01 00 00 00 	nop 
40002ba8:	01 00 00 00 	nop 
40002bac:	01 00 00 00 	nop 

40002bb0 <SW_trap_0xbb>:
40002bb0:	91 d0 20 00 	ta  0
40002bb4:	01 00 00 00 	nop 
40002bb8:	01 00 00 00 	nop 
40002bbc:	01 00 00 00 	nop 

40002bc0 <SW_trap_0xbc>:
40002bc0:	91 d0 20 00 	ta  0
40002bc4:	01 00 00 00 	nop 
40002bc8:	01 00 00 00 	nop 
40002bcc:	01 00 00 00 	nop 

40002bd0 <SW_trap_0xbd>:
40002bd0:	91 d0 20 00 	ta  0
40002bd4:	01 00 00 00 	nop 
40002bd8:	01 00 00 00 	nop 
40002bdc:	01 00 00 00 	nop 

40002be0 <SW_trap_0xbe>:
40002be0:	91 d0 20 00 	ta  0
40002be4:	01 00 00 00 	nop 
40002be8:	01 00 00 00 	nop 
40002bec:	01 00 00 00 	nop 

40002bf0 <SW_trap_0xbf>:
40002bf0:	91 d0 20 00 	ta  0
40002bf4:	01 00 00 00 	nop 
40002bf8:	01 00 00 00 	nop 
40002bfc:	01 00 00 00 	nop 

40002c00 <SW_trap_0xc0>:
40002c00:	91 d0 20 00 	ta  0
40002c04:	01 00 00 00 	nop 
40002c08:	01 00 00 00 	nop 
40002c0c:	01 00 00 00 	nop 

40002c10 <SW_trap_0xc1>:
40002c10:	91 d0 20 00 	ta  0
40002c14:	01 00 00 00 	nop 
40002c18:	01 00 00 00 	nop 
40002c1c:	01 00 00 00 	nop 

40002c20 <SW_trap_0xc2>:
40002c20:	91 d0 20 00 	ta  0
40002c24:	01 00 00 00 	nop 
40002c28:	01 00 00 00 	nop 
40002c2c:	01 00 00 00 	nop 

40002c30 <SW_trap_0xc3>:
40002c30:	91 d0 20 00 	ta  0
40002c34:	01 00 00 00 	nop 
40002c38:	01 00 00 00 	nop 
40002c3c:	01 00 00 00 	nop 

40002c40 <SW_trap_0xc4>:
40002c40:	91 d0 20 00 	ta  0
40002c44:	01 00 00 00 	nop 
40002c48:	01 00 00 00 	nop 
40002c4c:	01 00 00 00 	nop 

40002c50 <SW_trap_0xc5>:
40002c50:	91 d0 20 00 	ta  0
40002c54:	01 00 00 00 	nop 
40002c58:	01 00 00 00 	nop 
40002c5c:	01 00 00 00 	nop 

40002c60 <SW_trap_0xc6>:
40002c60:	91 d0 20 00 	ta  0
40002c64:	01 00 00 00 	nop 
40002c68:	01 00 00 00 	nop 
40002c6c:	01 00 00 00 	nop 

40002c70 <SW_trap_0xc7>:
40002c70:	91 d0 20 00 	ta  0
40002c74:	01 00 00 00 	nop 
40002c78:	01 00 00 00 	nop 
40002c7c:	01 00 00 00 	nop 

40002c80 <SW_trap_0xc8>:
40002c80:	91 d0 20 00 	ta  0
40002c84:	01 00 00 00 	nop 
40002c88:	01 00 00 00 	nop 
40002c8c:	01 00 00 00 	nop 

40002c90 <SW_trap_0xc9>:
40002c90:	91 d0 20 00 	ta  0
40002c94:	01 00 00 00 	nop 
40002c98:	01 00 00 00 	nop 
40002c9c:	01 00 00 00 	nop 

40002ca0 <SW_trap_0xca>:
40002ca0:	91 d0 20 00 	ta  0
40002ca4:	01 00 00 00 	nop 
40002ca8:	01 00 00 00 	nop 
40002cac:	01 00 00 00 	nop 

40002cb0 <SW_trap_0xcb>:
40002cb0:	91 d0 20 00 	ta  0
40002cb4:	01 00 00 00 	nop 
40002cb8:	01 00 00 00 	nop 
40002cbc:	01 00 00 00 	nop 

40002cc0 <SW_trap_0xcc>:
40002cc0:	91 d0 20 00 	ta  0
40002cc4:	01 00 00 00 	nop 
40002cc8:	01 00 00 00 	nop 
40002ccc:	01 00 00 00 	nop 

40002cd0 <SW_trap_0xcd>:
40002cd0:	91 d0 20 00 	ta  0
40002cd4:	01 00 00 00 	nop 
40002cd8:	01 00 00 00 	nop 
40002cdc:	01 00 00 00 	nop 

40002ce0 <SW_trap_0xce>:
40002ce0:	91 d0 20 00 	ta  0
40002ce4:	01 00 00 00 	nop 
40002ce8:	01 00 00 00 	nop 
40002cec:	01 00 00 00 	nop 

40002cf0 <SW_trap_0xcf>:
40002cf0:	91 d0 20 00 	ta  0
40002cf4:	01 00 00 00 	nop 
40002cf8:	01 00 00 00 	nop 
40002cfc:	01 00 00 00 	nop 

40002d00 <SW_trap_0xd0>:
40002d00:	91 d0 20 00 	ta  0
40002d04:	01 00 00 00 	nop 
40002d08:	01 00 00 00 	nop 
40002d0c:	01 00 00 00 	nop 

40002d10 <SW_trap_0xd1>:
40002d10:	91 d0 20 00 	ta  0
40002d14:	01 00 00 00 	nop 
40002d18:	01 00 00 00 	nop 
40002d1c:	01 00 00 00 	nop 

40002d20 <SW_trap_0xd2>:
40002d20:	91 d0 20 00 	ta  0
40002d24:	01 00 00 00 	nop 
40002d28:	01 00 00 00 	nop 
40002d2c:	01 00 00 00 	nop 

40002d30 <SW_trap_0xd3>:
40002d30:	91 d0 20 00 	ta  0
40002d34:	01 00 00 00 	nop 
40002d38:	01 00 00 00 	nop 
40002d3c:	01 00 00 00 	nop 

40002d40 <SW_trap_0xd4>:
40002d40:	91 d0 20 00 	ta  0
40002d44:	01 00 00 00 	nop 
40002d48:	01 00 00 00 	nop 
40002d4c:	01 00 00 00 	nop 

40002d50 <SW_trap_0xd5>:
40002d50:	91 d0 20 00 	ta  0
40002d54:	01 00 00 00 	nop 
40002d58:	01 00 00 00 	nop 
40002d5c:	01 00 00 00 	nop 

40002d60 <SW_trap_0xd6>:
40002d60:	91 d0 20 00 	ta  0
40002d64:	01 00 00 00 	nop 
40002d68:	01 00 00 00 	nop 
40002d6c:	01 00 00 00 	nop 

40002d70 <SW_trap_0xd7>:
40002d70:	91 d0 20 00 	ta  0
40002d74:	01 00 00 00 	nop 
40002d78:	01 00 00 00 	nop 
40002d7c:	01 00 00 00 	nop 

40002d80 <SW_trap_0xd8>:
40002d80:	91 d0 20 00 	ta  0
40002d84:	01 00 00 00 	nop 
40002d88:	01 00 00 00 	nop 
40002d8c:	01 00 00 00 	nop 

40002d90 <SW_trap_0xd9>:
40002d90:	91 d0 20 00 	ta  0
40002d94:	01 00 00 00 	nop 
40002d98:	01 00 00 00 	nop 
40002d9c:	01 00 00 00 	nop 

40002da0 <SW_trap_0xda>:
40002da0:	91 d0 20 00 	ta  0
40002da4:	01 00 00 00 	nop 
40002da8:	01 00 00 00 	nop 
40002dac:	01 00 00 00 	nop 

40002db0 <SW_trap_0xdb>:
40002db0:	91 d0 20 00 	ta  0
40002db4:	01 00 00 00 	nop 
40002db8:	01 00 00 00 	nop 
40002dbc:	01 00 00 00 	nop 

40002dc0 <SW_trap_0xdc>:
40002dc0:	91 d0 20 00 	ta  0
40002dc4:	01 00 00 00 	nop 
40002dc8:	01 00 00 00 	nop 
40002dcc:	01 00 00 00 	nop 

40002dd0 <SW_trap_0xdd>:
40002dd0:	91 d0 20 00 	ta  0
40002dd4:	01 00 00 00 	nop 
40002dd8:	01 00 00 00 	nop 
40002ddc:	01 00 00 00 	nop 

40002de0 <SW_trap_0xde>:
40002de0:	91 d0 20 00 	ta  0
40002de4:	01 00 00 00 	nop 
40002de8:	01 00 00 00 	nop 
40002dec:	01 00 00 00 	nop 

40002df0 <SW_trap_0xdf>:
40002df0:	91 d0 20 00 	ta  0
40002df4:	01 00 00 00 	nop 
40002df8:	01 00 00 00 	nop 
40002dfc:	01 00 00 00 	nop 

40002e00 <SW_trap_0xe0>:
40002e00:	91 d0 20 00 	ta  0
40002e04:	01 00 00 00 	nop 
40002e08:	01 00 00 00 	nop 
40002e0c:	01 00 00 00 	nop 

40002e10 <SW_trap_0xe1>:
40002e10:	91 d0 20 00 	ta  0
40002e14:	01 00 00 00 	nop 
40002e18:	01 00 00 00 	nop 
40002e1c:	01 00 00 00 	nop 

40002e20 <SW_trap_0xe2>:
40002e20:	91 d0 20 00 	ta  0
40002e24:	01 00 00 00 	nop 
40002e28:	01 00 00 00 	nop 
40002e2c:	01 00 00 00 	nop 

40002e30 <SW_trap_0xe3>:
40002e30:	91 d0 20 00 	ta  0
40002e34:	01 00 00 00 	nop 
40002e38:	01 00 00 00 	nop 
40002e3c:	01 00 00 00 	nop 

40002e40 <SW_trap_0xe4>:
40002e40:	91 d0 20 00 	ta  0
40002e44:	01 00 00 00 	nop 
40002e48:	01 00 00 00 	nop 
40002e4c:	01 00 00 00 	nop 

40002e50 <SW_trap_0xe5>:
40002e50:	91 d0 20 00 	ta  0
40002e54:	01 00 00 00 	nop 
40002e58:	01 00 00 00 	nop 
40002e5c:	01 00 00 00 	nop 

40002e60 <SW_trap_0xe6>:
40002e60:	91 d0 20 00 	ta  0
40002e64:	01 00 00 00 	nop 
40002e68:	01 00 00 00 	nop 
40002e6c:	01 00 00 00 	nop 

40002e70 <SW_trap_0xe7>:
40002e70:	91 d0 20 00 	ta  0
40002e74:	01 00 00 00 	nop 
40002e78:	01 00 00 00 	nop 
40002e7c:	01 00 00 00 	nop 

40002e80 <SW_trap_0xe8>:
40002e80:	91 d0 20 00 	ta  0
40002e84:	01 00 00 00 	nop 
40002e88:	01 00 00 00 	nop 
40002e8c:	01 00 00 00 	nop 

40002e90 <SW_trap_0xe9>:
40002e90:	91 d0 20 00 	ta  0
40002e94:	01 00 00 00 	nop 
40002e98:	01 00 00 00 	nop 
40002e9c:	01 00 00 00 	nop 

40002ea0 <SW_trap_0xea>:
40002ea0:	91 d0 20 00 	ta  0
40002ea4:	01 00 00 00 	nop 
40002ea8:	01 00 00 00 	nop 
40002eac:	01 00 00 00 	nop 

40002eb0 <SW_trap_0xeb>:
40002eb0:	91 d0 20 00 	ta  0
40002eb4:	01 00 00 00 	nop 
40002eb8:	01 00 00 00 	nop 
40002ebc:	01 00 00 00 	nop 

40002ec0 <SW_trap_0xec>:
40002ec0:	91 d0 20 00 	ta  0
40002ec4:	01 00 00 00 	nop 
40002ec8:	01 00 00 00 	nop 
40002ecc:	01 00 00 00 	nop 

40002ed0 <SW_trap_0xed>:
40002ed0:	91 d0 20 00 	ta  0
40002ed4:	01 00 00 00 	nop 
40002ed8:	01 00 00 00 	nop 
40002edc:	01 00 00 00 	nop 

40002ee0 <SW_trap_0xee>:
40002ee0:	91 d0 20 00 	ta  0
40002ee4:	01 00 00 00 	nop 
40002ee8:	01 00 00 00 	nop 
40002eec:	01 00 00 00 	nop 

40002ef0 <SW_trap_0xef>:
40002ef0:	91 d0 20 00 	ta  0
40002ef4:	01 00 00 00 	nop 
40002ef8:	01 00 00 00 	nop 
40002efc:	01 00 00 00 	nop 

40002f00 <SW_trap_0xf0>:
40002f00:	91 d0 20 00 	ta  0
40002f04:	01 00 00 00 	nop 
40002f08:	01 00 00 00 	nop 
40002f0c:	01 00 00 00 	nop 

40002f10 <SW_trap_0xf1>:
40002f10:	91 d0 20 00 	ta  0
40002f14:	01 00 00 00 	nop 
40002f18:	01 00 00 00 	nop 
40002f1c:	01 00 00 00 	nop 

40002f20 <SW_trap_0xf2>:
40002f20:	91 d0 20 00 	ta  0
40002f24:	01 00 00 00 	nop 
40002f28:	01 00 00 00 	nop 
40002f2c:	01 00 00 00 	nop 

40002f30 <SW_trap_0xf3>:
40002f30:	91 d0 20 00 	ta  0
40002f34:	01 00 00 00 	nop 
40002f38:	01 00 00 00 	nop 
40002f3c:	01 00 00 00 	nop 

40002f40 <SW_trap_0xf4>:
40002f40:	91 d0 20 00 	ta  0
40002f44:	01 00 00 00 	nop 
40002f48:	01 00 00 00 	nop 
40002f4c:	01 00 00 00 	nop 

40002f50 <SW_trap_0xf5>:
40002f50:	91 d0 20 00 	ta  0
40002f54:	01 00 00 00 	nop 
40002f58:	01 00 00 00 	nop 
40002f5c:	01 00 00 00 	nop 

40002f60 <SW_trap_0xf6>:
40002f60:	91 d0 20 00 	ta  0
40002f64:	01 00 00 00 	nop 
40002f68:	01 00 00 00 	nop 
40002f6c:	01 00 00 00 	nop 

40002f70 <SW_trap_0xf7>:
40002f70:	91 d0 20 00 	ta  0
40002f74:	01 00 00 00 	nop 
40002f78:	01 00 00 00 	nop 
40002f7c:	01 00 00 00 	nop 

40002f80 <SW_trap_0xf8>:
40002f80:	91 d0 20 00 	ta  0
40002f84:	01 00 00 00 	nop 
40002f88:	01 00 00 00 	nop 
40002f8c:	01 00 00 00 	nop 

40002f90 <SW_trap_0xf9>:
40002f90:	91 d0 20 00 	ta  0
40002f94:	01 00 00 00 	nop 
40002f98:	01 00 00 00 	nop 
40002f9c:	01 00 00 00 	nop 

40002fa0 <SW_trap_0xfa>:
40002fa0:	91 d0 20 00 	ta  0
40002fa4:	01 00 00 00 	nop 
40002fa8:	01 00 00 00 	nop 
40002fac:	01 00 00 00 	nop 

40002fb0 <SW_trap_0xfb>:
40002fb0:	91 d0 20 00 	ta  0
40002fb4:	01 00 00 00 	nop 
40002fb8:	01 00 00 00 	nop 
40002fbc:	01 00 00 00 	nop 

40002fc0 <SW_trap_0xfc>:
40002fc0:	91 d0 20 00 	ta  0
40002fc4:	01 00 00 00 	nop 
40002fc8:	01 00 00 00 	nop 
40002fcc:	01 00 00 00 	nop 

40002fd0 <SW_trap_0xfd>:
40002fd0:	91 d0 20 00 	ta  0
40002fd4:	01 00 00 00 	nop 
40002fd8:	01 00 00 00 	nop 
40002fdc:	01 00 00 00 	nop 

40002fe0 <SW_trap_0xfe>:
40002fe0:	91 d0 20 00 	ta  0
40002fe4:	01 00 00 00 	nop 
40002fe8:	01 00 00 00 	nop 
40002fec:	01 00 00 00 	nop 
40002ff0:	01 00 00 00 	nop 
40002ff4:	01 00 00 00 	nop 
40002ff8:	01 00 00 00 	nop 
40002ffc:	01 00 00 00 	nop 

40003000 <conv>:
40003000:	9d e3 bf 88 	save  %sp, -120, %sp
40003004:	ba 10 20 ff 	mov  0xff, %i5
40003008:	84 10 20 01 	mov  1, %g2
4000300c:	86 10 20 01 	mov  1, %g3
40003010:	94 10 20 03 	mov  3, %o2
40003014:	96 10 20 03 	mov  3, %o3
40003018:	e0 1e c0 00 	ldd  [ %i3 ], %l0
4000301c:	e4 1e e0 08 	ldd  [ %i3 + 8 ], %l2
40003020:	90 56 a0 02 	umul  %i2, 2, %o0
40003024:	b2 06 00 08 	add  %i0, %o0, %i1
40003028:	90 10 00 00 	mov  %g0, %o0
4000302c:	92 10 00 00 	mov  %g0, %o1
40003030:	88 26 a0 03 	sub  %i2, 3, %g4
40003034:	e8 06 00 00 	ld  [ %i0 ], %l4

40003038 <load1>:
40003038:	9a 06 00 1a 	add  %i0, %i2, %o5
4000303c:	ea 03 40 00 	ld  [ %o5 ], %l5
40003040:	ec 06 40 00 	ld  [ %i1 ], %l6
40003044:	9a 06 40 1a 	add  %i1, %i2, %o5
40003048:	ee 03 40 00 	ld  [ %o5 ], %l7
4000304c:	10 80 00 10 	b  4000308c <comp>
40003050:	b0 06 02 4a 	vaddd32  %i0, %o2, %i0

40003054 <load2>:
40003054:	a9 2d 20 08 	sll  %l4, 8, %l4
40003058:	ab 2d 60 08 	sll  %l5, 8, %l5
4000305c:	ad 2d a0 08 	sll  %l6, 8, %l6
40003060:	af 2d e0 08 	sll  %l7, 8, %l7
40003064:	d8 0e 00 00 	ldub  [ %i0 ], %o4
40003068:	a8 05 00 0c 	add  %l4, %o4, %l4
4000306c:	9a 06 00 1a 	add  %i0, %i2, %o5
40003070:	d8 0b 40 00 	ldub  [ %o5 ], %o4
40003074:	aa 05 40 0c 	add  %l5, %o4, %l5
40003078:	d8 0e 40 00 	ldub  [ %i1 ], %o4
4000307c:	ac 05 80 0c 	add  %l6, %o4, %l6
40003080:	9a 06 40 1a 	add  %i1, %i2, %o5
40003084:	d8 0b 40 00 	ldub  [ %o5 ], %o4
40003088:	ae 05 c0 0c 	add  %l7, %o4, %l7

4000308c <comp>:
4000308c:	98 54 00 d4 	vumuld8  %l0, %l4, %o4
40003090:	99 6b 00 9d 	adddreduce8  %o4, %i5, %o4
40003094:	82 10 00 00 	mov  %g0, %g1
40003098:	82 03 00 01 	add  %o4, %g1, %g1
4000309c:	98 54 80 d6 	vumuld8  %l2, %l6, %o4
400030a0:	99 6b 00 9d 	adddreduce8  %o4, %i5, %o4
400030a4:	82 03 00 01 	add  %o4, %g1, %g1
400030a8:	c2 27 00 00 	st  %g1, [ %i4 ]
400030ac:	b8 07 20 04 	add  %i4, 4, %i4
400030b0:	90 02 20 01 	inc  %o0
400030b4:	80 a2 00 04 	cmp  %o0, %g4
400030b8:	12 bf ff e7 	bne  40003054 <load2>
400030bc:	b0 00 82 58 	vaddd32  %g2, %i0, %i0
400030c0:	90 10 00 00 	mov  %g0, %o0
400030c4:	92 02 60 01 	inc  %o1
400030c8:	80 a2 40 04 	cmp  %o1, %g4
400030cc:	12 bf ff db 	bne  40003038 <load1>
400030d0:	e8 06 00 00 	ld  [ %i0 ], %l4
400030d4:	81 c7 e0 08 	ret 
400030d8:	81 e8 00 00 	restore 
400030dc:	40 00 37 24 	call  40010d6c <main+0xc024>
400030e0:	40 00 36 3c 	call  400109d0 <main+0xbc88>
400030e4:	40 00 36 3c 	call  400109d4 <main+0xbc8c>
400030e8:	40 00 36 3c 	call  400109d8 <main+0xbc90>
400030ec:	40 00 36 3c 	call  400109dc <main+0xbc94>
400030f0:	40 00 36 3c 	call  400109e0 <main+0xbc98>
400030f4:	40 00 36 3c 	call  400109e4 <main+0xbc9c>
400030f8:	40 00 36 3c 	call  400109e8 <main+0xbca0>
400030fc:	40 00 36 3c 	call  400109ec <main+0xbca4>
40003100:	40 00 36 3c 	call  400109f0 <main+0xbca8>
40003104:	40 00 36 3c 	call  400109f4 <main+0xbcac>
40003108:	40 00 36 3c 	call  400109f8 <main+0xbcb0>
4000310c:	40 00 36 3c 	call  400109fc <main+0xbcb4>
40003110:	40 00 36 3c 	call  40010a00 <main+0xbcb8>
40003114:	40 00 36 3c 	call  40010a04 <main+0xbcbc>
40003118:	40 00 36 3c 	call  40010a08 <main+0xbcc0>
4000311c:	40 00 36 3c 	call  40010a0c <main+0xbcc4>
40003120:	40 00 36 3c 	call  40010a10 <main+0xbcc8>
40003124:	40 00 36 3c 	call  40010a14 <main+0xbccc>
40003128:	40 00 36 3c 	call  40010a18 <main+0xbcd0>
4000312c:	40 00 36 3c 	call  40010a1c <main+0xbcd4>
40003130:	40 00 36 3c 	call  40010a20 <main+0xbcd8>
40003134:	40 00 36 3c 	call  40010a24 <main+0xbcdc>
40003138:	40 00 3a c4 	call  40011c48 <main+0xcf00>
4000313c:	40 00 36 3c 	call  40010a2c <main+0xbce4>
40003140:	40 00 36 3c 	call  40010a30 <main+0xbce8>
40003144:	40 00 36 3c 	call  40010a34 <main+0xbcec>
40003148:	40 00 36 3c 	call  40010a38 <main+0xbcf0>
4000314c:	40 00 36 3c 	call  40010a3c <main+0xbcf4>
40003150:	40 00 36 3c 	call  40010a40 <main+0xbcf8>
40003154:	40 00 36 3c 	call  40010a44 <main+0xbcfc>
40003158:	40 00 36 3c 	call  40010a48 <main+0xbd00>
4000315c:	40 00 37 28 	call  40010dfc <main+0xc0b4>
40003160:	40 00 36 3c 	call  40010a50 <main+0xbd08>
40003164:	40 00 3a 78 	call  40011b44 <main+0xcdfc>
40003168:	40 00 3a 6c 	call  40011b18 <main+0xcdd0>
4000316c:	40 00 36 3c 	call  40010a5c <main+0xbd14>
40003170:	40 00 36 3c 	call  40010a60 <main+0xbd18>
40003174:	40 00 36 3c 	call  40010a64 <main+0xbd1c>
40003178:	40 00 36 3c 	call  40010a68 <main+0xbd20>
4000317c:	40 00 3a 6c 	call  40011b2c <main+0xcde4>
40003180:	40 00 36 3c 	call  40010a70 <main+0xbd28>
40003184:	40 00 36 3c 	call  40010a74 <main+0xbd2c>
40003188:	40 00 36 3c 	call  40010a78 <main+0xbd30>
4000318c:	40 00 36 3c 	call  40010a7c <main+0xbd34>
40003190:	40 00 36 3c 	call  40010a80 <main+0xbd38>
40003194:	40 00 3a 64 	call  40011b24 <main+0xcddc>
40003198:	40 00 3a 40 	call  40011a98 <main+0xcd50>
4000319c:	40 00 36 3c 	call  40010a8c <main+0xbd44>
400031a0:	40 00 36 3c 	call  40010a90 <main+0xbd48>
400031a4:	40 00 39 54 	call  400116f4 <main+0xc9ac>
400031a8:	40 00 36 3c 	call  40010a98 <main+0xbd50>
400031ac:	40 00 39 4c 	call  400116dc <main+0xc994>
400031b0:	40 00 36 3c 	call  40010aa0 <main+0xbd58>
400031b4:	40 00 36 3c 	call  40010aa4 <main+0xbd5c>
400031b8:	40 00 39 34 	call  40011688 <main+0xc940>
400031bc:	40 00 37 08 	call  40010ddc <main+0xc094>
400031c0:	40 00 35 9c 	call  40010830 <main+0xbae8>
400031c4:	40 00 35 9c 	call  40010834 <main+0xbaec>
400031c8:	40 00 36 fc 	call  40010db8 <main+0xc070>
400031cc:	40 00 35 9c 	call  4001083c <main+0xbaf4>
400031d0:	40 00 35 9c 	call  40010840 <main+0xbaf8>
400031d4:	40 00 35 9c 	call  40010844 <main+0xbafc>
400031d8:	40 00 35 9c 	call  40010848 <main+0xbb00>
400031dc:	40 00 35 9c 	call  4001084c <main+0xbb04>
400031e0:	40 00 35 9c 	call  40010850 <main+0xbb08>
400031e4:	40 00 35 9c 	call  40010854 <main+0xbb0c>
400031e8:	40 00 36 f0 	call  40010da8 <main+0xc060>
400031ec:	40 00 35 9c 	call  4001085c <main+0xbb14>
400031f0:	40 00 36 e4 	call  40010d80 <main+0xc038>
400031f4:	40 00 35 9c 	call  40010864 <main+0xbb1c>
400031f8:	40 00 35 9c 	call  40010868 <main+0xbb20>
400031fc:	40 00 36 d8 	call  40010d5c <main+0xc014>

40003200 <number>:
40003200:	9d e3 bf 58 	save  %sp, -168, %sp
40003204:	80 8f 60 40 	btst  0x40, %i5
40003208:	02 80 00 79 	be  400033ec <number+0x1ec>
4000320c:	1f 10 01 00 	sethi  %hi(0x40040000), %o7
40003210:	1f 10 01 00 	sethi  %hi(0x40040000), %o7
40003214:	9e 13 e0 28 	or  %o7, 0x28, %o7	! 40040028 <main+0x3b2e0>
40003218:	80 8f 60 10 	btst  0x10, %i5
4000321c:	32 80 00 02 	bne,a   40003224 <number+0x24>
40003220:	ba 0f 7f fe 	and  %i5, -2, %i5
40003224:	82 06 bf fe 	add  %i2, -2, %g1
40003228:	80 a0 60 22 	cmp  %g1, 0x22
4000322c:	18 80 00 83 	bgu  40003438 <number+0x238>
40003230:	82 0f 60 01 	and  %i5, 1, %g1
40003234:	80 a0 00 01 	cmp  %g0, %g1
40003238:	98 10 20 00 	clr  %o4
4000323c:	9a 40 3f ff 	addx  %g0, -1, %o5
40003240:	80 8f 60 02 	btst  2, %i5
40003244:	9a 0b 60 f0 	and  %o5, 0xf0, %o5
40003248:	02 80 00 0c 	be  40003278 <number+0x78>
4000324c:	9a 03 60 30 	add  %o5, 0x30, %o5
40003250:	80 a6 60 00 	cmp  %i1, 0
40003254:	06 80 00 8a 	bl  4000347c <number+0x27c>
40003258:	80 8f 60 04 	btst  4, %i5
4000325c:	32 80 00 7a 	bne,a   40003444 <number+0x244>
40003260:	b6 06 ff ff 	add  %i3, -1, %i3
40003264:	80 8f 60 08 	btst  8, %i5
40003268:	02 80 00 05 	be  4000327c <number+0x7c>
4000326c:	96 8f 60 20 	andcc  %i5, 0x20, %o3
40003270:	b6 06 ff ff 	add  %i3, -1, %i3
40003274:	98 10 20 20 	mov  0x20, %o4
40003278:	96 8f 60 20 	andcc  %i5, 0x20, %o3
4000327c:	02 80 00 08 	be  4000329c <number+0x9c>
40003280:	80 a6 60 00 	cmp  %i1, 0
40003284:	80 a6 a0 10 	cmp  %i2, 0x10
40003288:	02 80 00 78 	be  40003468 <number+0x268>
4000328c:	82 1e a0 08 	xor  %i2, 8, %g1
40003290:	80 a0 00 01 	cmp  %g0, %g1
40003294:	b6 46 ff ff 	addx  %i3, -1, %i3
40003298:	80 a6 60 00 	cmp  %i1, 0
4000329c:	12 80 00 57 	bne  400033f8 <number+0x1f8>
400032a0:	82 10 20 00 	clr  %g1
400032a4:	82 10 20 30 	mov  0x30, %g1
400032a8:	88 07 bf b8 	add  %fp, -72, %g4
400032ac:	c2 2f bf b8 	stb  %g1, [ %fp + -72 ]
400032b0:	82 10 20 01 	mov  1, %g1
400032b4:	80 a0 40 1c 	cmp  %g1, %i4
400032b8:	16 80 00 03 	bge  400032c4 <number+0xc4>
400032bc:	86 10 00 01 	mov  %g1, %g3
400032c0:	86 10 00 1c 	mov  %i4, %g3
400032c4:	80 8f 60 11 	btst  0x11, %i5
400032c8:	12 80 00 0d 	bne  400032fc <number+0xfc>
400032cc:	b8 26 c0 03 	sub  %i3, %g3, %i4
400032d0:	80 a7 20 00 	cmp  %i4, 0
400032d4:	04 80 00 76 	ble  400034ac <number+0x2ac>
400032d8:	84 07 3f ff 	add  %i4, -1, %g2
400032dc:	b8 06 00 1c 	add  %i0, %i4, %i4
400032e0:	84 10 20 20 	mov  0x20, %g2
400032e4:	c4 2e 00 00 	stb  %g2, [ %i0 ]
400032e8:	b0 06 20 01 	inc  %i0
400032ec:	80 a6 00 1c 	cmp  %i0, %i4
400032f0:	32 bf ff fe 	bne,a   400032e8 <number+0xe8>
400032f4:	c4 2e 00 00 	stb  %g2, [ %i0 ]
400032f8:	b8 10 3f ff 	mov  -1, %i4
400032fc:	80 8b 20 ff 	btst  0xff, %o4
40003300:	02 80 00 04 	be  40003310 <number+0x110>
40003304:	80 a2 e0 00 	cmp  %o3, 0
40003308:	d8 2e 00 00 	stb  %o4, [ %i0 ]
4000330c:	b0 06 20 01 	inc  %i0
40003310:	02 80 00 08 	be  40003330 <number+0x130>
40003314:	80 8f 60 10 	btst  0x10, %i5
40003318:	80 a6 a0 08 	cmp  %i2, 8
4000331c:	02 80 00 4f 	be  40003458 <number+0x258>
40003320:	80 a6 a0 10 	cmp  %i2, 0x10
40003324:	22 80 00 5d 	be,a   40003498 <number+0x298>
40003328:	84 10 20 30 	mov  0x30, %g2
4000332c:	80 8f 60 10 	btst  0x10, %i5
40003330:	12 80 00 0d 	bne  40003364 <number+0x164>
40003334:	80 a0 c0 01 	cmp  %g3, %g1
40003338:	80 a7 20 00 	cmp  %i4, 0
4000333c:	04 80 00 5e 	ble  400034b4 <number+0x2b4>
40003340:	84 07 3f ff 	add  %i4, -1, %g2
40003344:	b8 06 00 1c 	add  %i0, %i4, %i4
40003348:	da 2e 00 00 	stb  %o5, [ %i0 ]
4000334c:	b0 06 20 01 	inc  %i0
40003350:	80 a6 00 1c 	cmp  %i0, %i4
40003354:	32 bf ff fe 	bne,a   4000334c <number+0x14c>
40003358:	da 2e 00 00 	stb  %o5, [ %i0 ]
4000335c:	b8 10 3f ff 	mov  -1, %i4
40003360:	80 a0 c0 01 	cmp  %g3, %g1
40003364:	04 80 00 09 	ble  40003388 <number+0x188>
40003368:	82 20 c0 01 	sub  %g3, %g1, %g1
4000336c:	86 10 20 30 	mov  0x30, %g3
40003370:	82 06 00 01 	add  %i0, %g1, %g1
40003374:	c6 2e 00 00 	stb  %g3, [ %i0 ]
40003378:	b0 06 20 01 	inc  %i0
4000337c:	80 a6 00 01 	cmp  %i0, %g1
40003380:	32 bf ff fe 	bne,a   40003378 <number+0x178>
40003384:	c6 2e 00 00 	stb  %g3, [ %i0 ]
40003388:	82 10 00 19 	mov  %i1, %g1
4000338c:	84 10 00 18 	mov  %i0, %g2
40003390:	c6 09 00 01 	ldub  [ %g4 + %g1 ], %g3
40003394:	c6 28 80 00 	stb  %g3, [ %g2 ]
40003398:	82 00 7f ff 	add  %g1, -1, %g1
4000339c:	86 00 60 01 	add  %g1, 1, %g3
400033a0:	80 a0 e0 00 	cmp  %g3, 0
400033a4:	14 bf ff fb 	bg  40003390 <number+0x190>
400033a8:	84 00 a0 01 	inc  %g2
400033ac:	82 38 00 19 	xnor  %g0, %i1, %g1
400033b0:	80 a7 20 00 	cmp  %i4, 0
400033b4:	83 38 60 1f 	sra  %g1, 0x1f, %g1
400033b8:	82 0e 40 01 	and  %i1, %g1, %g1
400033bc:	82 00 60 01 	inc  %g1
400033c0:	04 80 00 09 	ble  400033e4 <number+0x1e4>
400033c4:	b0 06 00 01 	add  %i0, %g1, %i0
400033c8:	84 06 00 1c 	add  %i0, %i4, %g2
400033cc:	82 10 20 20 	mov  0x20, %g1
400033d0:	c2 2e 00 00 	stb  %g1, [ %i0 ]
400033d4:	b0 06 20 01 	inc  %i0
400033d8:	80 a6 00 02 	cmp  %i0, %g2
400033dc:	32 bf ff fe 	bne,a   400033d4 <number+0x1d4>
400033e0:	c2 2e 00 00 	stb  %g1, [ %i0 ]
400033e4:	81 c7 e0 08 	ret 
400033e8:	81 e8 00 00 	restore 
400033ec:	10 bf ff 8b 	b  40003218 <number+0x18>
400033f0:	9e 13 e0 00 	mov  %o7, %o7
400033f4:	82 10 20 00 	clr  %g1
400033f8:	88 07 bf b8 	add  %fp, -72, %g4
400033fc:	81 80 20 00 	mov  %g0, %y
40003400:	01 00 00 00 	nop 
40003404:	01 00 00 00 	nop 
40003408:	01 00 00 00 	nop 
4000340c:	84 76 40 1a 	udiv  %i1, %i2, %g2
40003410:	86 58 80 1a 	smul  %g2, %i2, %g3
40003414:	b2 26 40 03 	sub  %i1, %g3, %i1
40003418:	c6 0b c0 19 	ldub  [ %o7 + %i1 ], %g3
4000341c:	c6 29 00 01 	stb  %g3, [ %g4 + %g1 ]
40003420:	b2 10 00 02 	mov  %g2, %i1
40003424:	80 a0 a0 00 	cmp  %g2, 0
40003428:	12 bf ff f5 	bne  400033fc <number+0x1fc>
4000342c:	82 00 60 01 	inc  %g1
40003430:	10 bf ff a1 	b  400032b4 <number+0xb4>
40003434:	b2 00 7f ff 	add  %g1, -1, %i1
40003438:	b0 10 20 00 	clr  %i0
4000343c:	81 c7 e0 08 	ret 
40003440:	81 e8 00 00 	restore 
40003444:	96 8f 60 20 	andcc  %i5, 0x20, %o3
40003448:	02 bf ff 94 	be  40003298 <number+0x98>
4000344c:	98 10 20 2b 	mov  0x2b, %o4
40003450:	10 bf ff 8e 	b  40003288 <number+0x88>
40003454:	80 a6 a0 10 	cmp  %i2, 0x10
40003458:	84 10 20 30 	mov  0x30, %g2
4000345c:	c4 2e 00 00 	stb  %g2, [ %i0 ]
40003460:	10 bf ff b3 	b  4000332c <number+0x12c>
40003464:	b0 06 20 01 	inc  %i0
40003468:	80 a6 60 00 	cmp  %i1, 0
4000346c:	12 bf ff e2 	bne  400033f4 <number+0x1f4>
40003470:	b6 06 ff fe 	add  %i3, -2, %i3
40003474:	10 bf ff 8d 	b  400032a8 <number+0xa8>
40003478:	82 10 20 30 	mov  0x30, %g1
4000347c:	b2 20 00 19 	neg  %i1
40003480:	b6 06 ff ff 	add  %i3, -1, %i3
40003484:	96 8f 60 20 	andcc  %i5, 0x20, %o3
40003488:	02 bf ff 84 	be  40003298 <number+0x98>
4000348c:	98 10 20 2d 	mov  0x2d, %o4
40003490:	10 bf ff 7e 	b  40003288 <number+0x88>
40003494:	80 a6 a0 10 	cmp  %i2, 0x10
40003498:	c4 2e 00 00 	stb  %g2, [ %i0 ]
4000349c:	84 10 20 78 	mov  0x78, %g2
400034a0:	c4 2e 20 01 	stb  %g2, [ %i0 + 1 ]
400034a4:	10 bf ff a2 	b  4000332c <number+0x12c>
400034a8:	b0 06 20 02 	add  %i0, 2, %i0
400034ac:	10 bf ff 94 	b  400032fc <number+0xfc>
400034b0:	b8 10 00 02 	mov  %g2, %i4
400034b4:	10 bf ff ab 	b  40003360 <number+0x160>
400034b8:	b8 10 00 02 	mov  %g2, %i4

400034bc <uart_send_char>:
400034bc:	9d e3 bf a0 	save  %sp, -96, %sp
400034c0:	40 00 04 ed 	call  40004874 <__ajit_serial_putchar__>
400034c4:	90 10 00 18 	mov  %i0, %o0
400034c8:	80 a2 20 00 	cmp  %o0, 0
400034cc:	02 bf ff fd 	be  400034c0 <uart_send_char+0x4>
400034d0:	05 3f ff cc 	sethi  %hi(0xffff3000), %g2
400034d4:	84 10 a2 00 	or  %g2, 0x200, %g2	! ffff3200 <res+0xbffb2840>
400034d8:	c2 80 84 00 	lda  [ %g2 ] #ASI_SCRATCHPAD, %g1
400034dc:	82 08 60 09 	and  %g1, 9, %g1
400034e0:	80 a0 60 09 	cmp  %g1, 9
400034e4:	02 bf ff fd 	be  400034d8 <uart_send_char+0x1c>
400034e8:	01 00 00 00 	nop 
400034ec:	81 c7 e0 08 	ret 
400034f0:	81 e8 00 00 	restore 

400034f4 <ee_printf>:
400034f4:	9d e3 bb 80 	save  %sp, -1152, %sp
400034f8:	fa 27 a0 58 	st  %i5, [ %fp + 0x58 ]
400034fc:	aa 07 a0 48 	add  %fp, 0x48, %l5
40003500:	f2 27 a0 48 	st  %i1, [ %fp + 0x48 ]
40003504:	f4 27 a0 4c 	st  %i2, [ %fp + 0x4c ]
40003508:	f6 27 a0 50 	st  %i3, [ %fp + 0x50 ]
4000350c:	f8 27 a0 54 	st  %i4, [ %fp + 0x54 ]
40003510:	ea 27 bb e4 	st  %l5, [ %fp + -1052 ]
40003514:	c4 0e 00 00 	ldub  [ %i0 ], %g2
40003518:	83 28 a0 18 	sll  %g2, 0x18, %g1
4000351c:	80 a0 60 00 	cmp  %g1, 0
40003520:	02 80 01 ec 	be  40003cd0 <ee_printf+0x7dc>
40003524:	ba 07 bc 00 	add  %fp, -1024, %i5
40003528:	2d 10 00 0c 	sethi  %hi(0x40003000), %l6
4000352c:	90 10 00 1d 	mov  %i5, %o0
40003530:	a2 10 20 25 	mov  0x25, %l1
40003534:	39 10 00 0c 	sethi  %hi(0x40003000), %i4
40003538:	37 10 01 00 	sethi  %hi(0x40040000), %i3
4000353c:	b2 10 20 30 	mov  0x30, %i1
40003540:	b4 10 20 2e 	mov  0x2e, %i2
40003544:	a8 10 20 20 	mov  0x20, %l4
40003548:	a0 10 20 01 	mov  1, %l0
4000354c:	25 10 01 00 	sethi  %hi(0x40040000), %l2
40003550:	10 80 00 08 	b  40003570 <ee_printf+0x7c>
40003554:	27 10 01 00 	sethi  %hi(0x40040000), %l3
40003558:	90 02 20 01 	inc  %o0
4000355c:	c4 0e 20 01 	ldub  [ %i0 + 1 ], %g2
40003560:	83 28 a0 18 	sll  %g2, 0x18, %g1
40003564:	80 a0 60 00 	cmp  %g1, 0
40003568:	02 80 00 47 	be  40003684 <ee_printf+0x190>
4000356c:	b0 06 20 01 	inc  %i0
40003570:	83 38 60 18 	sra  %g1, 0x18, %g1
40003574:	80 a0 60 25 	cmp  %g1, 0x25
40003578:	32 bf ff f8 	bne,a   40003558 <ee_printf+0x64>
4000357c:	c4 2a 00 00 	stb  %g2, [ %o0 ]
40003580:	9a 10 20 00 	clr  %o5
40003584:	c2 0e 20 01 	ldub  [ %i0 + 1 ], %g1
40003588:	86 00 7f e0 	add  %g1, -32, %g3
4000358c:	86 08 e0 ff 	and  %g3, 0xff, %g3
40003590:	80 a0 e0 10 	cmp  %g3, 0x10
40003594:	08 80 00 4c 	bleu  400036c4 <ee_printf+0x1d0>
40003598:	84 06 20 01 	add  %i0, 1, %g2
4000359c:	86 00 7f d0 	add  %g1, -48, %g3
400035a0:	86 08 e0 ff 	and  %g3, 0xff, %g3
400035a4:	80 a0 e0 09 	cmp  %g3, 9
400035a8:	18 80 00 bd 	bgu  4000389c <ee_printf+0x3a8>
400035ac:	87 28 60 18 	sll  %g1, 0x18, %g3
400035b0:	96 10 20 00 	clr  %o3
400035b4:	86 02 c0 0b 	add  %o3, %o3, %g3
400035b8:	83 28 60 18 	sll  %g1, 0x18, %g1
400035bc:	83 38 60 18 	sra  %g1, 0x18, %g1
400035c0:	97 2a e0 03 	sll  %o3, 3, %o3
400035c4:	84 00 a0 01 	inc  %g2
400035c8:	96 00 c0 0b 	add  %g3, %o3, %o3
400035cc:	96 02 c0 01 	add  %o3, %g1, %o3
400035d0:	c2 08 80 00 	ldub  [ %g2 ], %g1
400035d4:	86 00 7f d0 	add  %g1, -48, %g3
400035d8:	86 08 e0 ff 	and  %g3, 0xff, %g3
400035dc:	80 a0 e0 09 	cmp  %g3, 9
400035e0:	08 bf ff f5 	bleu  400035b4 <ee_printf+0xc0>
400035e4:	96 02 ff d0 	add  %o3, -48, %o3
400035e8:	87 28 60 18 	sll  %g1, 0x18, %g3
400035ec:	b0 10 00 02 	mov  %g2, %i0
400035f0:	87 38 e0 18 	sra  %g3, 0x18, %g3
400035f4:	80 a0 e0 2e 	cmp  %g3, 0x2e
400035f8:	02 80 00 b2 	be  400038c0 <ee_printf+0x3cc>
400035fc:	98 10 3f ff 	mov  -1, %o4
40003600:	84 08 7f df 	and  %g1, -33, %g2
40003604:	85 28 a0 18 	sll  %g2, 0x18, %g2
40003608:	85 38 a0 18 	sra  %g2, 0x18, %g2
4000360c:	80 a0 a0 4c 	cmp  %g2, 0x4c
40003610:	12 80 00 06 	bne  40003628 <ee_printf+0x134>
40003614:	86 10 3f ff 	mov  -1, %g3
40003618:	87 28 60 18 	sll  %g1, 0x18, %g3
4000361c:	c2 0e 20 01 	ldub  [ %i0 + 1 ], %g1
40003620:	87 38 e0 18 	sra  %g3, 0x18, %g3
40003624:	b0 06 20 01 	inc  %i0
40003628:	84 00 7f bf 	add  %g1, -65, %g2
4000362c:	84 08 a0 ff 	and  %g2, 0xff, %g2
40003630:	80 a0 a0 37 	cmp  %g2, 0x37
40003634:	08 80 00 38 	bleu  40003714 <ee_printf+0x220>
40003638:	88 17 20 dc 	or  %i4, 0xdc, %g4
4000363c:	85 28 60 18 	sll  %g1, 0x18, %g2
40003640:	85 38 a0 18 	sra  %g2, 0x18, %g2
40003644:	80 a0 a0 25 	cmp  %g2, 0x25
40003648:	22 80 00 09 	be,a   4000366c <ee_printf+0x178>
4000364c:	c2 2a 00 00 	stb  %g1, [ %o0 ]
40003650:	e2 2a 00 00 	stb  %l1, [ %o0 ]
40003654:	90 02 20 01 	inc  %o0
40003658:	c4 4e 00 00 	ldsb  [ %i0 ], %g2
4000365c:	80 a0 a0 00 	cmp  %g2, 0
40003660:	02 80 00 09 	be  40003684 <ee_printf+0x190>
40003664:	c2 0e 00 00 	ldub  [ %i0 ], %g1
40003668:	c2 2a 00 00 	stb  %g1, [ %o0 ]
4000366c:	90 02 20 01 	inc  %o0
40003670:	c4 0e 20 01 	ldub  [ %i0 + 1 ], %g2
40003674:	83 28 a0 18 	sll  %g2, 0x18, %g1
40003678:	80 a0 60 00 	cmp  %g1, 0
4000367c:	12 bf ff bd 	bne  40003570 <ee_printf+0x7c>
40003680:	b0 06 20 01 	inc  %i0
40003684:	c0 2a 00 00 	clrb  [ %o0 ]
40003688:	d0 0f bc 00 	ldub  [ %fp + -1024 ], %o0
4000368c:	91 2a 20 18 	sll  %o0, 0x18, %o0
40003690:	80 a2 20 00 	cmp  %o0, 0
40003694:	02 80 00 0a 	be  400036bc <ee_printf+0x1c8>
40003698:	b0 10 20 00 	clr  %i0
4000369c:	7f ff ff 88 	call  400034bc <uart_send_char>
400036a0:	91 3a 20 18 	sra  %o0, 0x18, %o0
400036a4:	b0 06 20 01 	inc  %i0
400036a8:	d0 0f 40 18 	ldub  [ %i5 + %i0 ], %o0
400036ac:	91 2a 20 18 	sll  %o0, 0x18, %o0
400036b0:	80 a2 20 00 	cmp  %o0, 0
400036b4:	12 bf ff fa 	bne  4000369c <ee_printf+0x1a8>
400036b8:	01 00 00 00 	nop 
400036bc:	81 c7 e0 08 	ret 
400036c0:	81 e8 00 00 	restore 
400036c4:	88 15 a1 bc 	or  %l6, 0x1bc, %g4
400036c8:	87 28 e0 02 	sll  %g3, 2, %g3
400036cc:	c6 01 00 03 	ld  [ %g4 + %g3 ], %g3
400036d0:	81 c0 c0 00 	jmp  %g3
400036d4:	01 00 00 00 	nop 
400036d8:	9a 13 60 01 	or  %o5, 1, %o5
400036dc:	10 bf ff aa 	b  40003584 <ee_printf+0x90>
400036e0:	b0 10 00 02 	mov  %g2, %i0
400036e4:	9a 13 60 10 	or  %o5, 0x10, %o5
400036e8:	10 bf ff a7 	b  40003584 <ee_printf+0x90>
400036ec:	b0 10 00 02 	mov  %g2, %i0
400036f0:	9a 13 60 04 	or  %o5, 4, %o5
400036f4:	10 bf ff a4 	b  40003584 <ee_printf+0x90>
400036f8:	b0 10 00 02 	mov  %g2, %i0
400036fc:	9a 13 60 20 	or  %o5, 0x20, %o5
40003700:	10 bf ff a1 	b  40003584 <ee_printf+0x90>
40003704:	b0 10 00 02 	mov  %g2, %i0
40003708:	9a 13 60 08 	or  %o5, 8, %o5
4000370c:	10 bf ff 9e 	b  40003584 <ee_printf+0x90>
40003710:	b0 10 00 02 	mov  %g2, %i0
40003714:	85 28 a0 02 	sll  %g2, 2, %g2
40003718:	c4 01 00 02 	ld  [ %g4 + %g2 ], %g2
4000371c:	81 c0 80 00 	jmp  %g2
40003720:	01 00 00 00 	nop 
40003724:	9a 13 60 40 	or  %o5, 0x40, %o5
40003728:	80 a0 e0 6c 	cmp  %g3, 0x6c
4000372c:	02 80 01 04 	be  40003b3c <ee_printf+0x648>
40003730:	84 10 20 00 	clr  %g2
40003734:	de 05 40 00 	ld  [ %l5 ], %o7
40003738:	aa 05 60 04 	add  %l5, 4, %l5
4000373c:	c2 0b c0 02 	ldub  [ %o7 + %g2 ], %g1
40003740:	80 a0 60 00 	cmp  %g1, 0
40003744:	12 80 00 0e 	bne  4000377c <ee_printf+0x288>
40003748:	88 10 20 00 	clr  %g4
4000374c:	82 07 80 04 	add  %fp, %g4, %g1
40003750:	f2 28 7b e8 	stb  %i1, [ %g1 + -1048 ]
40003754:	84 00 a0 01 	inc  %g2
40003758:	80 a0 a0 04 	cmp  %g2, 4
4000375c:	02 80 00 2b 	be  40003808 <ee_printf+0x314>
40003760:	88 01 20 01 	inc  %g4
40003764:	82 07 80 04 	add  %fp, %g4, %g1
40003768:	f4 28 7b e8 	stb  %i2, [ %g1 + -1048 ]
4000376c:	c2 0b c0 02 	ldub  [ %o7 + %g2 ], %g1
40003770:	80 a0 60 00 	cmp  %g1, 0
40003774:	02 bf ff f6 	be  4000374c <ee_printf+0x258>
40003778:	88 01 20 01 	inc  %g4
4000377c:	80 a0 60 63 	cmp  %g1, 0x63
40003780:	04 80 00 dd 	ble  40003af4 <ee_printf+0x600>
40003784:	80 a0 60 09 	cmp  %g1, 9
40003788:	87 38 60 1f 	sra  %g1, 0x1f, %g3
4000378c:	81 80 e0 00 	mov  %g3, %y
40003790:	01 00 00 00 	nop 
40003794:	01 00 00 00 	nop 
40003798:	01 00 00 00 	nop 
4000379c:	98 78 60 64 	sdiv  %g1, 0x64, %o4
400037a0:	86 16 e0 00 	mov  %i3, %g3
400037a4:	92 5b 20 64 	smul  %o4, 0x64, %o1
400037a8:	d8 08 c0 0c 	ldub  [ %g3 + %o4 ], %o4
400037ac:	94 07 80 04 	add  %fp, %g4, %o2
400037b0:	82 20 40 09 	sub  %g1, %o1, %g1
400037b4:	d8 2a bb e8 	stb  %o4, [ %o2 + -1048 ]
400037b8:	88 01 20 02 	add  %g4, 2, %g4
400037bc:	93 38 60 1f 	sra  %g1, 0x1f, %o1
400037c0:	81 82 60 00 	mov  %o1, %y
400037c4:	01 00 00 00 	nop 
400037c8:	01 00 00 00 	nop 
400037cc:	01 00 00 00 	nop 
400037d0:	98 78 60 0a 	sdiv  %g1, 0xa, %o4
400037d4:	ee 08 c0 0c 	ldub  [ %g3 + %o4 ], %l7
400037d8:	92 03 00 0c 	add  %o4, %o4, %o1
400037dc:	ee 2a bb e9 	stb  %l7, [ %o2 + -1047 ]
400037e0:	99 2b 20 03 	sll  %o4, 3, %o4
400037e4:	98 02 40 0c 	add  %o1, %o4, %o4
400037e8:	82 20 40 0c 	sub  %g1, %o4, %g1
400037ec:	98 07 80 04 	add  %fp, %g4, %o4
400037f0:	c2 08 c0 01 	ldub  [ %g3 + %g1 ], %g1
400037f4:	c2 2b 3b e8 	stb  %g1, [ %o4 + -1048 ]
400037f8:	84 00 a0 01 	inc  %g2
400037fc:	80 a0 a0 04 	cmp  %g2, 4
40003800:	12 bf ff d9 	bne  40003764 <ee_printf+0x270>
40003804:	88 01 20 01 	inc  %g4
40003808:	80 8b 60 10 	btst  0x10, %o5
4000380c:	32 80 00 11 	bne,a   40003850 <ee_printf+0x35c>
40003810:	82 10 20 00 	clr  %g1
40003814:	80 a2 c0 04 	cmp  %o3, %g4
40003818:	04 80 01 36 	ble  40003cf0 <ee_printf+0x7fc>
4000381c:	82 02 ff ff 	add  %o3, -1, %g1
40003820:	82 22 c0 04 	sub  %o3, %g4, %g1
40003824:	82 02 00 01 	add  %o0, %g1, %g1
40003828:	e8 2a 00 00 	stb  %l4, [ %o0 ]
4000382c:	90 02 20 01 	inc  %o0
40003830:	80 a2 00 01 	cmp  %o0, %g1
40003834:	32 bf ff fe 	bne,a   4000382c <ee_printf+0x338>
40003838:	e8 2a 00 00 	stb  %l4, [ %o0 ]
4000383c:	82 24 00 0b 	sub  %l0, %o3, %g1
40003840:	96 02 ff fe 	add  %o3, -2, %o3
40003844:	82 01 00 01 	add  %g4, %g1, %g1
40003848:	96 02 c0 01 	add  %o3, %g1, %o3
4000384c:	82 10 20 00 	clr  %g1
40003850:	86 07 bb e8 	add  %fp, -1048, %g3
40003854:	c4 08 c0 01 	ldub  [ %g3 + %g1 ], %g2
40003858:	c4 2a 00 01 	stb  %g2, [ %o0 + %g1 ]
4000385c:	82 00 60 01 	inc  %g1
40003860:	80 a0 40 04 	cmp  %g1, %g4
40003864:	32 bf ff fd 	bne,a   40003858 <ee_printf+0x364>
40003868:	c4 08 c0 01 	ldub  [ %g3 + %g1 ], %g2
4000386c:	80 a0 40 0b 	cmp  %g1, %o3
40003870:	16 80 00 09 	bge  40003894 <ee_printf+0x3a0>
40003874:	90 02 00 01 	add  %o0, %g1, %o0
40003878:	82 22 c0 01 	sub  %o3, %g1, %g1
4000387c:	82 02 00 01 	add  %o0, %g1, %g1
40003880:	e8 2a 00 00 	stb  %l4, [ %o0 ]
40003884:	90 02 20 01 	inc  %o0
40003888:	80 a2 00 01 	cmp  %o0, %g1
4000388c:	32 bf ff fe 	bne,a   40003884 <ee_printf+0x390>
40003890:	e8 2a 00 00 	stb  %l4, [ %o0 ]
40003894:	10 bf ff 33 	b  40003560 <ee_printf+0x6c>
40003898:	c4 0e 20 01 	ldub  [ %i0 + 1 ], %g2
4000389c:	89 38 e0 18 	sra  %g3, 0x18, %g4
400038a0:	80 a1 20 2a 	cmp  %g4, 0x2a
400038a4:	02 80 00 8b 	be  40003ad0 <ee_printf+0x5dc>
400038a8:	87 38 e0 18 	sra  %g3, 0x18, %g3
400038ac:	b0 10 00 02 	mov  %g2, %i0
400038b0:	96 10 3f ff 	mov  -1, %o3
400038b4:	80 a0 e0 2e 	cmp  %g3, 0x2e
400038b8:	12 bf ff 52 	bne  40003600 <ee_printf+0x10c>
400038bc:	98 10 3f ff 	mov  -1, %o4
400038c0:	c2 0e 20 01 	ldub  [ %i0 + 1 ], %g1
400038c4:	86 00 7f d0 	add  %g1, -48, %g3
400038c8:	86 08 e0 ff 	and  %g3, 0xff, %g3
400038cc:	80 a0 e0 09 	cmp  %g3, 9
400038d0:	18 80 00 12 	bgu  40003918 <ee_printf+0x424>
400038d4:	84 06 20 01 	add  %i0, 1, %g2
400038d8:	98 10 20 00 	clr  %o4
400038dc:	86 03 00 0c 	add  %o4, %o4, %g3
400038e0:	83 28 60 18 	sll  %g1, 0x18, %g1
400038e4:	83 38 60 18 	sra  %g1, 0x18, %g1
400038e8:	99 2b 20 03 	sll  %o4, 3, %o4
400038ec:	84 00 a0 01 	inc  %g2
400038f0:	98 00 c0 0c 	add  %g3, %o4, %o4
400038f4:	98 03 00 01 	add  %o4, %g1, %o4
400038f8:	c2 08 80 00 	ldub  [ %g2 ], %g1
400038fc:	86 00 7f d0 	add  %g1, -48, %g3
40003900:	86 08 e0 ff 	and  %g3, 0xff, %g3
40003904:	80 a0 e0 09 	cmp  %g3, 9
40003908:	08 bf ff f5 	bleu  400038dc <ee_printf+0x3e8>
4000390c:	98 03 3f d0 	add  %o4, -48, %o4
40003910:	10 bf ff 3c 	b  40003600 <ee_printf+0x10c>
40003914:	b0 10 00 02 	mov  %g2, %i0
40003918:	87 28 60 18 	sll  %g1, 0x18, %g3
4000391c:	87 38 e0 18 	sra  %g3, 0x18, %g3
40003920:	80 a0 e0 2a 	cmp  %g3, 0x2a
40003924:	02 80 00 e2 	be  40003cac <ee_printf+0x7b8>
40003928:	98 10 20 00 	clr  %o4
4000392c:	10 bf ff 35 	b  40003600 <ee_printf+0x10c>
40003930:	b0 10 00 02 	mov  %g2, %i0
40003934:	94 10 20 10 	mov  0x10, %o2
40003938:	7f ff fe 32 	call  40003200 <number>
4000393c:	d2 05 40 00 	ld  [ %l5 ], %o1
40003940:	aa 05 60 04 	add  %l5, 4, %l5
40003944:	10 bf ff 07 	b  40003560 <ee_printf+0x6c>
40003948:	c4 0e 20 01 	ldub  [ %i0 + 1 ], %g2
4000394c:	10 bf ff fb 	b  40003938 <ee_printf+0x444>
40003950:	94 10 20 0a 	mov  0xa, %o2
40003954:	c8 05 40 00 	ld  [ %l5 ], %g4
40003958:	80 a1 20 00 	cmp  %g4, 0
4000395c:	02 80 00 e1 	be  40003ce0 <ee_printf+0x7ec>
40003960:	aa 05 60 04 	add  %l5, 4, %l5
40003964:	c2 49 00 00 	ldsb  [ %g4 ], %g1
40003968:	80 a0 60 00 	cmp  %g1, 0
4000396c:	02 80 00 df 	be  40003ce8 <ee_printf+0x7f4>
40003970:	80 a3 20 00 	cmp  %o4, 0
40003974:	02 80 00 dd 	be  40003ce8 <ee_printf+0x7f4>
40003978:	82 10 00 04 	mov  %g4, %g1
4000397c:	10 80 00 05 	b  40003990 <ee_printf+0x49c>
40003980:	82 00 60 01 	inc  %g1
40003984:	02 80 00 08 	be  400039a4 <ee_printf+0x4b0>
40003988:	86 20 40 04 	sub  %g1, %g4, %g3
4000398c:	82 00 60 01 	inc  %g1
40003990:	c4 48 40 00 	ldsb  [ %g1 ], %g2
40003994:	80 a0 a0 00 	cmp  %g2, 0
40003998:	32 bf ff fb 	bne,a   40003984 <ee_printf+0x490>
4000399c:	98 83 3f ff 	addcc  %o4, -1, %o4
400039a0:	86 20 40 04 	sub  %g1, %g4, %g3
400039a4:	80 8b 60 10 	btst  0x10, %o5
400039a8:	12 80 00 11 	bne  400039ec <ee_printf+0x4f8>
400039ac:	80 a0 e0 00 	cmp  %g3, 0
400039b0:	80 a2 c0 03 	cmp  %o3, %g3
400039b4:	04 80 00 d1 	ble  40003cf8 <ee_printf+0x804>
400039b8:	82 02 ff ff 	add  %o3, -1, %g1
400039bc:	82 22 c0 03 	sub  %o3, %g3, %g1
400039c0:	82 02 00 01 	add  %o0, %g1, %g1
400039c4:	e8 2a 00 00 	stb  %l4, [ %o0 ]
400039c8:	90 02 20 01 	inc  %o0
400039cc:	80 a2 00 01 	cmp  %o0, %g1
400039d0:	32 bf ff fe 	bne,a   400039c8 <ee_printf+0x4d4>
400039d4:	e8 2a 00 00 	stb  %l4, [ %o0 ]
400039d8:	82 24 00 0b 	sub  %l0, %o3, %g1
400039dc:	96 02 ff fe 	add  %o3, -2, %o3
400039e0:	82 00 40 03 	add  %g1, %g3, %g1
400039e4:	96 02 c0 01 	add  %o3, %g1, %o3
400039e8:	80 a0 e0 00 	cmp  %g3, 0
400039ec:	04 80 00 0b 	ble  40003a18 <ee_printf+0x524>
400039f0:	82 22 c0 03 	sub  %o3, %g3, %g1
400039f4:	82 10 20 00 	clr  %g1
400039f8:	c4 09 00 01 	ldub  [ %g4 + %g1 ], %g2
400039fc:	c4 2a 00 01 	stb  %g2, [ %o0 + %g1 ]
40003a00:	82 00 60 01 	inc  %g1
40003a04:	80 a0 40 03 	cmp  %g1, %g3
40003a08:	32 bf ff fd 	bne,a   400039fc <ee_printf+0x508>
40003a0c:	c4 09 00 01 	ldub  [ %g4 + %g1 ], %g2
40003a10:	90 02 00 03 	add  %o0, %g3, %o0
40003a14:	82 22 c0 03 	sub  %o3, %g3, %g1
40003a18:	80 a2 c0 03 	cmp  %o3, %g3
40003a1c:	04 bf ff 9e 	ble  40003894 <ee_printf+0x3a0>
40003a20:	82 02 00 01 	add  %o0, %g1, %g1
40003a24:	e8 2a 00 00 	stb  %l4, [ %o0 ]
40003a28:	90 02 20 01 	inc  %o0
40003a2c:	80 a2 00 01 	cmp  %o0, %g1
40003a30:	32 bf ff fe 	bne,a   40003a28 <ee_printf+0x534>
40003a34:	e8 2a 00 00 	stb  %l4, [ %o0 ]
40003a38:	10 bf fe ca 	b  40003560 <ee_printf+0x6c>
40003a3c:	c4 0e 20 01 	ldub  [ %i0 + 1 ], %g2
40003a40:	80 a2 ff ff 	cmp  %o3, -1
40003a44:	22 80 00 98 	be,a   40003ca4 <ee_printf+0x7b0>
40003a48:	9a 13 60 01 	or  %o5, 1, %o5
40003a4c:	d2 05 40 00 	ld  [ %l5 ], %o1
40003a50:	7f ff fd ec 	call  40003200 <number>
40003a54:	94 10 20 10 	mov  0x10, %o2
40003a58:	aa 05 60 04 	add  %l5, 4, %l5
40003a5c:	10 bf fe c1 	b  40003560 <ee_printf+0x6c>
40003a60:	c4 0e 20 01 	ldub  [ %i0 + 1 ], %g2
40003a64:	10 bf ff b5 	b  40003938 <ee_printf+0x444>
40003a68:	94 10 20 08 	mov  8, %o2
40003a6c:	9a 13 60 02 	or  %o5, 2, %o5
40003a70:	10 bf ff b2 	b  40003938 <ee_printf+0x444>
40003a74:	94 10 20 0a 	mov  0xa, %o2
40003a78:	80 8b 60 10 	btst  0x10, %o5
40003a7c:	32 80 00 7a 	bne,a   40003c64 <ee_printf+0x770>
40003a80:	c2 05 40 00 	ld  [ %l5 ], %g1
40003a84:	96 02 ff ff 	add  %o3, -1, %o3
40003a88:	80 a2 e0 00 	cmp  %o3, 0
40003a8c:	24 80 00 76 	ble,a   40003c64 <ee_printf+0x770>
40003a90:	c2 05 40 00 	ld  [ %l5 ], %g1
40003a94:	82 02 00 0b 	add  %o0, %o3, %g1
40003a98:	e8 2a 00 00 	stb  %l4, [ %o0 ]
40003a9c:	90 02 20 01 	inc  %o0
40003aa0:	80 a2 00 01 	cmp  %o0, %g1
40003aa4:	32 bf ff fe 	bne,a   40003a9c <ee_printf+0x5a8>
40003aa8:	e8 2a 00 00 	stb  %l4, [ %o0 ]
40003aac:	c2 05 40 00 	ld  [ %l5 ], %g1
40003ab0:	aa 05 60 04 	add  %l5, 4, %l5
40003ab4:	c2 2a 00 00 	stb  %g1, [ %o0 ]
40003ab8:	90 02 20 01 	inc  %o0
40003abc:	10 bf fe a9 	b  40003560 <ee_printf+0x6c>
40003ac0:	c4 0e 20 01 	ldub  [ %i0 + 1 ], %g2
40003ac4:	9a 13 60 40 	or  %o5, 0x40, %o5
40003ac8:	10 bf ff 9c 	b  40003938 <ee_printf+0x444>
40003acc:	94 10 20 10 	mov  0x10, %o2
40003ad0:	d6 05 40 00 	ld  [ %l5 ], %o3
40003ad4:	84 06 20 02 	add  %i0, 2, %g2
40003ad8:	aa 05 60 04 	add  %l5, 4, %l5
40003adc:	80 a2 e0 00 	cmp  %o3, 0
40003ae0:	16 bf fe c2 	bge  400035e8 <ee_printf+0xf4>
40003ae4:	c2 0e 20 02 	ldub  [ %i0 + 2 ], %g1
40003ae8:	96 20 00 0b 	neg  %o3
40003aec:	10 bf fe bf 	b  400035e8 <ee_printf+0xf4>
40003af0:	9a 13 60 10 	or  %o5, 0x10, %o5
40003af4:	24 bf ff 3e 	ble,a   400037ec <ee_printf+0x2f8>
40003af8:	86 16 e0 00 	mov  %i3, %g3
40003afc:	87 38 60 1f 	sra  %g1, 0x1f, %g3
40003b00:	81 80 e0 00 	mov  %g3, %y
40003b04:	01 00 00 00 	nop 
40003b08:	01 00 00 00 	nop 
40003b0c:	01 00 00 00 	nop 
40003b10:	98 78 60 0a 	sdiv  %g1, 0xa, %o4
40003b14:	92 07 80 04 	add  %fp, %g4, %o1
40003b18:	94 03 00 0c 	add  %o4, %o4, %o2
40003b1c:	86 16 e0 00 	mov  %i3, %g3
40003b20:	88 01 20 01 	inc  %g4
40003b24:	ee 08 c0 0c 	ldub  [ %g3 + %o4 ], %l7
40003b28:	99 2b 20 03 	sll  %o4, 3, %o4
40003b2c:	ee 2a 7b e8 	stb  %l7, [ %o1 + -1048 ]
40003b30:	98 02 80 0c 	add  %o2, %o4, %o4
40003b34:	10 bf ff 2e 	b  400037ec <ee_printf+0x2f8>
40003b38:	82 20 40 0c 	sub  %g1, %o4, %g1
40003b3c:	d8 05 40 00 	ld  [ %l5 ], %o4
40003b40:	80 8b 60 40 	btst  0x40, %o5
40003b44:	02 80 00 65 	be  40003cd8 <ee_printf+0x7e4>
40003b48:	aa 05 60 04 	add  %l5, 4, %l5
40003b4c:	9e 14 a0 28 	or  %l2, 0x28, %o7
40003b50:	82 10 20 00 	clr  %g1
40003b54:	c8 0b 00 01 	ldub  [ %o4 + %g1 ], %g4
40003b58:	ae 09 20 ff 	and  %g4, 0xff, %l7
40003b5c:	88 09 20 0f 	and  %g4, 0xf, %g4
40003b60:	84 10 20 00 	clr  %g2
40003b64:	d2 0b c0 04 	ldub  [ %o7 + %g4 ], %o1
40003b68:	86 07 80 02 	add  %fp, %g2, %g3
40003b6c:	af 35 e0 04 	srl  %l7, 4, %l7
40003b70:	d2 28 fb e9 	stb  %o1, [ %g3 + -1047 ]
40003b74:	c8 0b c0 17 	ldub  [ %o7 + %l7 ], %g4
40003b78:	c8 28 fb e8 	stb  %g4, [ %g3 + -1048 ]
40003b7c:	82 00 60 01 	inc  %g1
40003b80:	94 10 20 3a 	mov  0x3a, %o2
40003b84:	80 a0 60 06 	cmp  %g1, 6
40003b88:	02 80 00 12 	be  40003bd0 <ee_printf+0x6dc>
40003b8c:	88 00 a0 02 	add  %g2, 2, %g4
40003b90:	88 07 80 04 	add  %fp, %g4, %g4
40003b94:	d4 29 3b e8 	stb  %o2, [ %g4 + -1048 ]
40003b98:	c8 0b 00 01 	ldub  [ %o4 + %g1 ], %g4
40003b9c:	ae 09 20 ff 	and  %g4, 0xff, %l7
40003ba0:	88 09 20 0f 	and  %g4, 0xf, %g4
40003ba4:	84 00 a0 03 	add  %g2, 3, %g2
40003ba8:	d2 0b c0 04 	ldub  [ %o7 + %g4 ], %o1
40003bac:	86 07 80 02 	add  %fp, %g2, %g3
40003bb0:	af 35 e0 04 	srl  %l7, 4, %l7
40003bb4:	d2 28 fb e9 	stb  %o1, [ %g3 + -1047 ]
40003bb8:	c8 0b c0 17 	ldub  [ %o7 + %l7 ], %g4
40003bbc:	c8 28 fb e8 	stb  %g4, [ %g3 + -1048 ]
40003bc0:	82 00 60 01 	inc  %g1
40003bc4:	80 a0 60 06 	cmp  %g1, 6
40003bc8:	12 bf ff f2 	bne  40003b90 <ee_printf+0x69c>
40003bcc:	88 00 a0 02 	add  %g2, 2, %g4
40003bd0:	80 8b 60 10 	btst  0x10, %o5
40003bd4:	32 80 00 11 	bne,a   40003c18 <ee_printf+0x724>
40003bd8:	82 10 20 00 	clr  %g1
40003bdc:	80 a2 c0 04 	cmp  %o3, %g4
40003be0:	04 80 00 48 	ble  40003d00 <ee_printf+0x80c>
40003be4:	82 02 ff ff 	add  %o3, -1, %g1
40003be8:	82 22 c0 04 	sub  %o3, %g4, %g1
40003bec:	82 02 00 01 	add  %o0, %g1, %g1
40003bf0:	e8 2a 00 00 	stb  %l4, [ %o0 ]
40003bf4:	90 02 20 01 	inc  %o0
40003bf8:	80 a2 00 01 	cmp  %o0, %g1
40003bfc:	32 bf ff fe 	bne,a   40003bf4 <ee_printf+0x700>
40003c00:	e8 2a 00 00 	stb  %l4, [ %o0 ]
40003c04:	82 24 00 0b 	sub  %l0, %o3, %g1
40003c08:	96 02 ff fe 	add  %o3, -2, %o3
40003c0c:	82 01 00 01 	add  %g4, %g1, %g1
40003c10:	96 02 c0 01 	add  %o3, %g1, %o3
40003c14:	82 10 20 00 	clr  %g1
40003c18:	86 07 bb e8 	add  %fp, -1048, %g3
40003c1c:	c4 08 c0 01 	ldub  [ %g3 + %g1 ], %g2
40003c20:	c4 2a 00 01 	stb  %g2, [ %o0 + %g1 ]
40003c24:	82 00 60 01 	inc  %g1
40003c28:	80 a0 40 04 	cmp  %g1, %g4
40003c2c:	32 bf ff fd 	bne,a   40003c20 <ee_printf+0x72c>
40003c30:	c4 08 c0 01 	ldub  [ %g3 + %g1 ], %g2
40003c34:	80 a2 c0 01 	cmp  %o3, %g1
40003c38:	04 bf ff 17 	ble  40003894 <ee_printf+0x3a0>
40003c3c:	90 02 00 01 	add  %o0, %g1, %o0
40003c40:	82 22 c0 01 	sub  %o3, %g1, %g1
40003c44:	82 02 00 01 	add  %o0, %g1, %g1
40003c48:	e8 2a 00 00 	stb  %l4, [ %o0 ]
40003c4c:	90 02 20 01 	inc  %o0
40003c50:	80 a2 00 01 	cmp  %o0, %g1
40003c54:	32 bf ff fe 	bne,a   40003c4c <ee_printf+0x758>
40003c58:	e8 2a 00 00 	stb  %l4, [ %o0 ]
40003c5c:	10 bf fe 41 	b  40003560 <ee_printf+0x6c>
40003c60:	c4 0e 20 01 	ldub  [ %i0 + 1 ], %g2
40003c64:	c2 2a 00 00 	stb  %g1, [ %o0 ]
40003c68:	86 02 20 01 	add  %o0, 1, %g3
40003c6c:	aa 05 60 04 	add  %l5, 4, %l5
40003c70:	90 02 00 0b 	add  %o0, %o3, %o0
40003c74:	80 a2 e0 01 	cmp  %o3, 1
40003c78:	04 80 00 24 	ble  40003d08 <ee_printf+0x814>
40003c7c:	82 10 00 03 	mov  %g3, %g1
40003c80:	e8 28 40 00 	stb  %l4, [ %g1 ]
40003c84:	82 00 60 01 	inc  %g1
40003c88:	80 a0 40 08 	cmp  %g1, %o0
40003c8c:	32 bf ff fe 	bne,a   40003c84 <ee_printf+0x790>
40003c90:	e8 28 40 00 	stb  %l4, [ %g1 ]
40003c94:	96 02 ff ff 	add  %o3, -1, %o3
40003c98:	c4 0e 20 01 	ldub  [ %i0 + 1 ], %g2
40003c9c:	10 bf fe 31 	b  40003560 <ee_printf+0x6c>
40003ca0:	90 00 c0 0b 	add  %g3, %o3, %o0
40003ca4:	10 bf ff 6a 	b  40003a4c <ee_printf+0x558>
40003ca8:	96 10 20 08 	mov  8, %o3
40003cac:	d8 05 40 00 	ld  [ %l5 ], %o4
40003cb0:	84 06 20 02 	add  %i0, 2, %g2
40003cb4:	aa 05 60 04 	add  %l5, 4, %l5
40003cb8:	80 a3 20 00 	cmp  %o4, 0
40003cbc:	16 bf ff 15 	bge  40003910 <ee_printf+0x41c>
40003cc0:	c2 0e 20 02 	ldub  [ %i0 + 2 ], %g1
40003cc4:	98 10 20 00 	clr  %o4
40003cc8:	10 bf fe 4e 	b  40003600 <ee_printf+0x10c>
40003ccc:	b0 10 00 02 	mov  %g2, %i0
40003cd0:	10 bf fe 6d 	b  40003684 <ee_printf+0x190>
40003cd4:	90 10 00 1d 	mov  %i5, %o0
40003cd8:	10 bf ff 9e 	b  40003b50 <ee_printf+0x65c>
40003cdc:	9e 16 e0 00 	mov  %i3, %o7
40003ce0:	10 bf ff 21 	b  40003964 <ee_printf+0x470>
40003ce4:	88 14 e0 50 	or  %l3, 0x50, %g4
40003ce8:	10 bf ff 2f 	b  400039a4 <ee_printf+0x4b0>
40003cec:	86 10 20 00 	clr  %g3
40003cf0:	10 bf fe d7 	b  4000384c <ee_printf+0x358>
40003cf4:	96 10 00 01 	mov  %g1, %o3
40003cf8:	10 bf ff 3c 	b  400039e8 <ee_printf+0x4f4>
40003cfc:	96 10 00 01 	mov  %g1, %o3
40003d00:	10 bf ff c5 	b  40003c14 <ee_printf+0x720>
40003d04:	96 10 00 01 	mov  %g1, %o3
40003d08:	90 10 00 03 	mov  %g3, %o0
40003d0c:	10 bf fe 15 	b  40003560 <ee_printf+0x6c>
40003d10:	c4 0e 20 01 	ldub  [ %i0 + 1 ], %g2

40003d14 <enable_serial>:
40003d14:	9d e3 bf a0 	save  %sp, -96, %sp
40003d18:	90 10 20 07 	mov  7, %o0
40003d1c:	40 00 01 fd 	call  40004510 <__ajit_write_serial_control_register__>
40003d20:	31 10 01 00 	sethi  %hi(0x40040000), %i0
40003d24:	7f ff fd f4 	call  400034f4 <ee_printf>
40003d28:	91 ee 20 58 	restore  %i0, 0x58, %o0

40003d2c <print_matrix>:
40003d2c:	9d e3 bf a0 	save  %sp, -96, %sp
40003d30:	a0 10 20 00 	clr  %l0
40003d34:	80 a6 60 00 	cmp  %i1, 0
40003d38:	04 80 00 1c 	ble  40003da8 <print_matrix+0x7c>
40003d3c:	a2 10 20 00 	clr  %l1
40003d40:	37 10 01 00 	sethi  %hi(0x40040000), %i3
40003d44:	25 10 01 00 	sethi  %hi(0x40040000), %l2
40003d48:	a6 06 bf ff 	add  %i2, -1, %l3
40003d4c:	b6 16 e0 70 	or  %i3, 0x70, %i3
40003d50:	a4 14 a0 78 	or  %l2, 0x78, %l2
40003d54:	80 a6 a0 00 	cmp  %i2, 0
40003d58:	04 80 00 0e 	ble  40003d90 <print_matrix+0x64>
40003d5c:	01 00 00 00 	nop 
40003d60:	bb 2c 60 02 	sll  %l1, 2, %i5
40003d64:	b8 10 20 00 	clr  %i4
40003d68:	ba 06 00 1d 	add  %i0, %i5, %i5
40003d6c:	d2 07 40 00 	ld  [ %i5 ], %o1
40003d70:	7f ff fd e1 	call  400034f4 <ee_printf>
40003d74:	90 10 00 1b 	mov  %i3, %o0
40003d78:	b8 07 20 01 	inc  %i4
40003d7c:	80 a7 00 1a 	cmp  %i4, %i2
40003d80:	12 bf ff fb 	bne  40003d6c <print_matrix+0x40>
40003d84:	ba 07 60 04 	add  %i5, 4, %i5
40003d88:	a2 04 60 01 	inc  %l1
40003d8c:	a2 04 40 13 	add  %l1, %l3, %l1
40003d90:	7f ff fd d9 	call  400034f4 <ee_printf>
40003d94:	90 10 00 12 	mov  %l2, %o0
40003d98:	a0 04 20 01 	inc  %l0
40003d9c:	80 a4 00 19 	cmp  %l0, %i1
40003da0:	12 bf ff ee 	bne  40003d58 <print_matrix+0x2c>
40003da4:	80 a6 a0 00 	cmp  %i2, 0
40003da8:	81 c7 e0 08 	ret 
40003dac:	81 e8 00 00 	restore 

40003db0 <print_matrix_u8>:
40003db0:	9d e3 bf a0 	save  %sp, -96, %sp
40003db4:	a0 10 20 00 	clr  %l0
40003db8:	80 a6 60 00 	cmp  %i1, 0
40003dbc:	04 80 00 1a 	ble  40003e24 <print_matrix_u8+0x74>
40003dc0:	a2 10 20 00 	clr  %l1
40003dc4:	37 10 01 00 	sethi  %hi(0x40040000), %i3
40003dc8:	25 10 01 00 	sethi  %hi(0x40040000), %l2
40003dcc:	a6 06 bf ff 	add  %i2, -1, %l3
40003dd0:	b6 16 e0 70 	or  %i3, 0x70, %i3
40003dd4:	a4 14 a0 78 	or  %l2, 0x78, %l2
40003dd8:	ba 10 20 00 	clr  %i5
40003ddc:	80 a6 a0 00 	cmp  %i2, 0
40003de0:	04 80 00 0b 	ble  40003e0c <print_matrix_u8+0x5c>
40003de4:	b8 06 00 11 	add  %i0, %l1, %i4
40003de8:	d2 0f 00 1d 	ldub  [ %i4 + %i5 ], %o1
40003dec:	7f ff fd c2 	call  400034f4 <ee_printf>
40003df0:	90 10 00 1b 	mov  %i3, %o0
40003df4:	ba 07 60 01 	inc  %i5
40003df8:	80 a7 40 1a 	cmp  %i5, %i2
40003dfc:	32 bf ff fc 	bne,a   40003dec <print_matrix_u8+0x3c>
40003e00:	d2 0f 00 1d 	ldub  [ %i4 + %i5 ], %o1
40003e04:	a2 04 60 01 	inc  %l1
40003e08:	a2 04 40 13 	add  %l1, %l3, %l1
40003e0c:	7f ff fd ba 	call  400034f4 <ee_printf>
40003e10:	90 10 00 12 	mov  %l2, %o0
40003e14:	a0 04 20 01 	inc  %l0
40003e18:	80 a4 00 19 	cmp  %l0, %i1
40003e1c:	12 bf ff f0 	bne  40003ddc <print_matrix_u8+0x2c>
40003e20:	ba 10 20 00 	clr  %i5
40003e24:	81 c7 e0 08 	ret 
40003e28:	81 e8 00 00 	restore 

40003e2c <ajit_serial_init>:
40003e2c:	90 10 20 01 	mov  1, %o0
40003e30:	92 10 20 00 	clr  %o1
40003e34:	94 10 20 00 	clr  %o2
40003e38:	82 13 c0 00 	mov  %o7, %g1
40003e3c:	40 00 01 ba 	call  40004524 <__ajit_serial_configure__>
40003e40:	9e 10 40 00 	mov  %g1, %o7

40003e44 <ajit_barebones_clock>:
40003e44:	9d e3 bf a0 	save  %sp, -96, %sp
40003e48:	40 00 00 e9 	call  400041ec <__ajit_read_cycle_count_register_high__>
40003e4c:	01 00 00 00 	nop 
40003e50:	40 00 00 ea 	call  400041f8 <__ajit_read_cycle_count_register_low__>
40003e54:	b0 10 00 08 	mov  %o0, %i0
40003e58:	b1 2e 20 18 	sll  %i0, 0x18, %i0
40003e5c:	91 32 20 08 	srl  %o0, 8, %o0
40003e60:	b0 12 00 18 	or  %o0, %i0, %i0
40003e64:	81 c7 e0 08 	ret 
40003e68:	81 e8 00 00 	restore 
40003e6c:	40 00 42 e0 	call  400149ec <main+0xfca4>
40003e70:	40 00 43 18 	call  40014ad0 <main+0xfd88>
40003e74:	40 00 43 24 	call  40014b04 <main+0xfdbc>
40003e78:	40 00 43 30 	call  40014b38 <main+0xfdf0>
40003e7c:	40 00 43 3c 	call  40014b6c <main+0xfe24>
40003e80:	40 00 43 48 	call  40014ba0 <main+0xfe58>
40003e84:	40 00 43 54 	call  40014bd4 <main+0xfe8c>
40003e88:	40 00 43 60 	call  40014c08 <main+0xfec0>
40003e8c:	40 00 43 6c 	call  40014c3c <main+0xfef4>
40003e90:	40 00 43 78 	call  40014c70 <main+0xff28>
40003e94:	40 00 43 84 	call  40014ca4 <main+0xff5c>
40003e98:	40 00 43 90 	call  40014cd8 <main+0xff90>
40003e9c:	40 00 43 9c 	call  40014d0c <main+0xffc4>
40003ea0:	40 00 43 a8 	call  40014d40 <main+0xfff8>
40003ea4:	40 00 43 00 	call  40014aa4 <main+0xfd5c>
40003ea8:	40 00 43 0c 	call  40014ad8 <main+0xfd90>
40003eac:	40 00 43 c4 	call  40014dbc <main+0x10074>
40003eb0:	40 00 43 fc 	call  40014ea0 <main+0x10158>
40003eb4:	40 00 44 08 	call  40014ed4 <main+0x1018c>
40003eb8:	40 00 44 14 	call  40014f08 <main+0x101c0>
40003ebc:	40 00 44 20 	call  40014f3c <main+0x101f4>
40003ec0:	40 00 44 2c 	call  40014f70 <main+0x10228>
40003ec4:	40 00 44 38 	call  40014fa4 <main+0x1025c>
40003ec8:	40 00 44 44 	call  40014fd8 <main+0x10290>
40003ecc:	40 00 44 50 	call  4001500c <main+0x102c4>
40003ed0:	40 00 44 5c 	call  40015040 <main+0x102f8>
40003ed4:	40 00 44 68 	call  40015074 <main+0x1032c>
40003ed8:	40 00 44 74 	call  400150a8 <main+0x10360>
40003edc:	40 00 44 80 	call  400150dc <main+0x10394>
40003ee0:	40 00 44 8c 	call  40015110 <main+0x103c8>
40003ee4:	40 00 43 e4 	call  40014e74 <main+0x1012c>
40003ee8:	40 00 43 f0 	call  40014ea8 <main+0x10160>

40003eec <__ajit_clear_all_gp_registers__>:
40003eec:	82 10 00 00 	mov  %g0, %g1
40003ef0:	84 10 00 00 	mov  %g0, %g2
40003ef4:	86 10 00 00 	mov  %g0, %g3
40003ef8:	88 10 00 00 	mov  %g0, %g4
40003efc:	8a 10 00 00 	mov  %g0, %g5
40003f00:	8c 10 00 00 	mov  %g0, %g6
40003f04:	8e 10 00 00 	mov  %g0, %g7
40003f08:	b0 10 00 00 	mov  %g0, %i0
40003f0c:	b2 10 00 00 	mov  %g0, %i1
40003f10:	b4 10 00 00 	mov  %g0, %i2
40003f14:	b6 10 00 00 	mov  %g0, %i3
40003f18:	b8 10 00 00 	mov  %g0, %i4
40003f1c:	ba 10 00 00 	mov  %g0, %i5
40003f20:	bc 10 00 00 	mov  %g0, %fp
40003f24:	be 10 00 00 	mov  %g0, %i7
40003f28:	a0 10 00 00 	mov  %g0, %l0
40003f2c:	a2 10 00 00 	mov  %g0, %l1
40003f30:	a4 10 00 00 	mov  %g0, %l2
40003f34:	a6 10 00 00 	mov  %g0, %l3
40003f38:	a8 10 00 00 	mov  %g0, %l4
40003f3c:	aa 10 00 00 	mov  %g0, %l5
40003f40:	ac 10 00 00 	mov  %g0, %l6
40003f44:	ae 10 00 00 	mov  %g0, %l7
40003f48:	90 10 00 00 	mov  %g0, %o0
40003f4c:	92 10 00 00 	mov  %g0, %o1
40003f50:	94 10 00 00 	mov  %g0, %o2
40003f54:	96 10 00 00 	mov  %g0, %o3
40003f58:	98 10 00 00 	mov  %g0, %o4
40003f5c:	9a 10 00 00 	mov  %g0, %o5
40003f60:	9c 10 00 00 	mov  %g0, %sp
40003f64:	9e 10 00 00 	mov  %g0, %o7
40003f68:	82 10 20 07 	mov  7, %g1
40003f6c:	81 e0 00 00 	save 
40003f70:	a0 10 00 00 	mov  %g0, %l0
40003f74:	a2 10 00 00 	mov  %g0, %l1
40003f78:	a4 10 00 00 	mov  %g0, %l2
40003f7c:	a6 10 00 00 	mov  %g0, %l3
40003f80:	a8 10 00 00 	mov  %g0, %l4
40003f84:	aa 10 00 00 	mov  %g0, %l5
40003f88:	ac 10 00 00 	mov  %g0, %l6
40003f8c:	ae 10 00 00 	mov  %g0, %l7
40003f90:	90 10 00 00 	mov  %g0, %o0
40003f94:	92 10 00 00 	mov  %g0, %o1
40003f98:	94 10 00 00 	mov  %g0, %o2
40003f9c:	96 10 00 00 	mov  %g0, %o3
40003fa0:	98 10 00 00 	mov  %g0, %o4
40003fa4:	9a 10 00 00 	mov  %g0, %o5
40003fa8:	9c 10 00 00 	mov  %g0, %sp
40003fac:	9e 10 00 00 	mov  %g0, %o7
40003fb0:	82 80 7f ff 	addcc  %g1, -1, %g1
40003fb4:	12 bf ff ee 	bne  40003f6c <__ajit_clear_all_gp_registers__+0x80>
40003fb8:	01 00 00 00 	nop 
40003fbc:	82 10 20 07 	mov  7, %g1	! 7 <__DYNAMIC+0x7>
40003fc0:	81 e8 00 00 	restore 
40003fc4:	82 80 7f ff 	addcc  %g1, -1, %g1
40003fc8:	12 bf ff fe 	bne  40003fc0 <__ajit_clear_all_gp_registers__+0xd4>
40003fcc:	01 00 00 00 	nop 
40003fd0:	81 c3 e0 08 	retl 
40003fd4:	01 00 00 00 	nop 

40003fd8 <ajit_read_from_scratch_pad>:
40003fd8:	80 a2 20 1f 	cmp  %o0, 0x1f
40003fdc:	18 80 00 05 	bgu  40003ff0 <ajit_read_from_scratch_pad+0x18>
40003fe0:	82 10 20 00 	clr  %g1
40003fe4:	91 2a 20 02 	sll  %o0, 2, %o0
40003fe8:	03 3f ff cb 	sethi  %hi(0xffff2c00), %g1
40003fec:	c2 02 00 01 	ld  [ %o0 + %g1 ], %g1
40003ff0:	81 c3 e0 08 	retl 
40003ff4:	90 10 00 01 	mov  %g1, %o0

40003ff8 <ajit_write_to_scratch_pad>:
40003ff8:	80 a2 20 1f 	cmp  %o0, 0x1f
40003ffc:	18 80 00 04 	bgu  4000400c <ajit_write_to_scratch_pad+0x14>
40004000:	91 2a 20 02 	sll  %o0, 2, %o0
40004004:	03 3f ff cb 	sethi  %hi(0xffff2c00), %g1
40004008:	d2 22 00 01 	st  %o1, [ %o0 + %g1 ]
4000400c:	81 c3 e0 08 	retl 
40004010:	01 00 00 00 	nop 

40004014 <ajit_configure_i2c_master>:
40004014:	81 80 20 00 	mov  %g0, %y
40004018:	01 00 00 00 	nop 
4000401c:	01 00 00 00 	nop 
40004020:	01 00 00 00 	nop 
40004024:	92 72 00 09 	udiv  %o0, %o1, %o1
40004028:	03 3f ff cd 	sethi  %hi(0xffff3400), %g1
4000402c:	93 32 60 02 	srl  %o1, 2, %o1
40004030:	82 10 62 00 	or  %g1, 0x200, %g1
40004034:	81 c3 e0 08 	retl 
40004038:	d2 20 40 00 	st  %o1, [ %g1 ]

4000403c <ajit_i2c_master_is_ready>:
4000403c:	03 3f ff cd 	sethi  %hi(0xffff3400), %g1
40004040:	82 10 62 08 	or  %g1, 0x208, %g1	! ffff3608 <res+0xbffb2c48>
40004044:	d0 00 40 00 	ld  [ %g1 ], %o0
40004048:	91 32 20 0a 	srl  %o0, 0xa, %o0
4000404c:	81 c3 e0 08 	retl 
40004050:	90 0a 20 01 	and  %o0, 1, %o0

40004054 <ajit_i2c_master_write_command>:
40004054:	03 3f ff cd 	sethi  %hi(0xffff3400), %g1
40004058:	82 10 62 04 	or  %g1, 0x204, %g1	! ffff3604 <res+0xbffb2c44>
4000405c:	81 c3 e0 08 	retl 
40004060:	d0 20 40 00 	st  %o0, [ %g1 ]

40004064 <ajit_i2c_master_read_status>:
40004064:	03 3f ff cd 	sethi  %hi(0xffff3400), %g1
40004068:	82 10 62 08 	or  %g1, 0x208, %g1	! ffff3608 <res+0xbffb2c48>
4000406c:	81 c3 e0 08 	retl 
40004070:	d0 00 40 00 	ld  [ %g1 ], %o0

40004074 <ajit_i2c_master_access_slave_memory_device>:
40004074:	03 3f ff cd 	sethi  %hi(0xffff3400), %g1
40004078:	84 10 62 08 	or  %g1, 0x208, %g2	! ffff3608 <res+0xbffb2c48>
4000407c:	c4 00 80 00 	ld  [ %g2 ], %g2
40004080:	80 88 a4 00 	btst  0x400, %g2
40004084:	02 80 00 11 	be  400040c8 <ajit_i2c_master_access_slave_memory_device+0x54>
40004088:	82 10 62 04 	or  %g1, 0x204, %g1
4000408c:	91 2a 20 10 	sll  %o0, 0x10, %o0
40004090:	87 2a 60 1f 	sll  %o1, 0x1f, %g3
40004094:	09 18 00 00 	sethi  %hi(0x60000000), %g4
40004098:	95 2a a0 08 	sll  %o2, 8, %o2
4000409c:	90 12 00 04 	or  %o0, %g4, %o0
400040a0:	90 12 00 03 	or  %o0, %g3, %o0
400040a4:	94 12 00 0a 	or  %o0, %o2, %o2
400040a8:	96 12 80 0b 	or  %o2, %o3, %o3
400040ac:	d6 20 40 00 	st  %o3, [ %g1 ]
400040b0:	80 a2 60 00 	cmp  %o1, 0
400040b4:	02 80 00 03 	be  400040c0 <ajit_i2c_master_access_slave_memory_device+0x4c>
400040b8:	90 10 20 00 	clr  %o0
400040bc:	90 10 00 02 	mov  %g2, %o0
400040c0:	81 c3 e0 08 	retl 
400040c4:	90 0a 20 ff 	and  %o0, 0xff, %o0
400040c8:	30 80 00 00 	b,a   400040c8 <ajit_i2c_master_access_slave_memory_device+0x54>

400040cc <__ajit_read_core_thread_id_word__>:
400040cc:	91 47 40 00 	rd  %asr29, %o0
400040d0:	81 c3 e0 08 	retl 
400040d4:	01 00 00 00 	nop 

400040d8 <ajit_read_thread_descriptor>:
400040d8:	9d e3 bf a0 	save  %sp, -96, %sp
400040dc:	83 47 00 00 	rd  %asr28, %g1
400040e0:	87 30 60 1e 	srl  %g1, 0x1e, %g3
400040e4:	80 a0 e0 03 	cmp  %g3, 3
400040e8:	02 80 00 0a 	be  40004110 <ajit_read_thread_descriptor+0x38>
400040ec:	84 10 20 20 	mov  0x20, %g2
400040f0:	80 a0 e0 02 	cmp  %g3, 2
400040f4:	02 80 00 07 	be  40004110 <ajit_read_thread_descriptor+0x38>
400040f8:	84 10 20 10 	mov  0x10, %g2
400040fc:	86 18 e0 01 	xor  %g3, 1, %g3
40004100:	80 a0 00 03 	cmp  %g0, %g3
40004104:	84 60 20 00 	subx  %g0, 0, %g2
40004108:	84 08 a0 fc 	and  %g2, 0xfc, %g2
4000410c:	84 00 a0 08 	add  %g2, 8, %g2
40004110:	87 30 60 1c 	srl  %g1, 0x1c, %g3
40004114:	86 08 e0 03 	and  %g3, 3, %g3
40004118:	80 a0 e0 03 	cmp  %g3, 3
4000411c:	02 80 00 2d 	be  400041d0 <ajit_read_thread_descriptor+0xf8>
40004120:	c4 2e 00 00 	stb  %g2, [ %i0 ]
40004124:	80 a0 e0 02 	cmp  %g3, 2
40004128:	02 80 00 07 	be  40004144 <ajit_read_thread_descriptor+0x6c>
4000412c:	84 10 20 10 	mov  0x10, %g2
40004130:	86 18 e0 01 	xor  %g3, 1, %g3
40004134:	80 a0 00 03 	cmp  %g0, %g3
40004138:	84 60 20 00 	subx  %g0, 0, %g2
4000413c:	84 08 a0 fc 	and  %g2, 0xfc, %g2
40004140:	84 00 a0 08 	add  %g2, 8, %g2
40004144:	99 30 60 1a 	srl  %g1, 0x1a, %o4
40004148:	9b 30 60 18 	srl  %g1, 0x18, %o5
4000414c:	9f 30 60 14 	srl  %g1, 0x14, %o7
40004150:	b3 30 60 10 	srl  %g1, 0x10, %i1
40004154:	b5 30 60 0c 	srl  %g1, 0xc, %i2
40004158:	b7 30 60 09 	srl  %g1, 9, %i3
4000415c:	b9 30 60 07 	srl  %g1, 7, %i4
40004160:	bb 30 60 05 	srl  %g1, 5, %i5
40004164:	89 30 60 02 	srl  %g1, 2, %g4
40004168:	87 30 60 01 	srl  %g1, 1, %g3
4000416c:	98 0b 20 03 	and  %o4, 3, %o4
40004170:	9a 0b 60 03 	and  %o5, 3, %o5
40004174:	9e 0b e0 0f 	and  %o7, 0xf, %o7
40004178:	b2 0e 60 0f 	and  %i1, 0xf, %i1
4000417c:	b4 0e a0 0f 	and  %i2, 0xf, %i2
40004180:	b6 0e e0 07 	and  %i3, 7, %i3
40004184:	b8 0f 20 03 	and  %i4, 3, %i4
40004188:	ba 0f 60 03 	and  %i5, 3, %i5
4000418c:	88 09 20 01 	and  %g4, 1, %g4
40004190:	86 08 e0 01 	and  %g3, 1, %g3
40004194:	82 08 60 01 	and  %g1, 1, %g1
40004198:	c4 2e 20 01 	stb  %g2, [ %i0 + 1 ]
4000419c:	d8 2e 20 02 	stb  %o4, [ %i0 + 2 ]
400041a0:	da 2e 20 03 	stb  %o5, [ %i0 + 3 ]
400041a4:	de 2e 20 04 	stb  %o7, [ %i0 + 4 ]
400041a8:	f2 2e 20 05 	stb  %i1, [ %i0 + 5 ]
400041ac:	f4 2e 20 06 	stb  %i2, [ %i0 + 6 ]
400041b0:	f6 2e 20 07 	stb  %i3, [ %i0 + 7 ]
400041b4:	f8 2e 20 08 	stb  %i4, [ %i0 + 8 ]
400041b8:	fa 2e 20 09 	stb  %i5, [ %i0 + 9 ]
400041bc:	c8 2e 20 0a 	stb  %g4, [ %i0 + 0xa ]
400041c0:	c6 2e 20 0b 	stb  %g3, [ %i0 + 0xb ]
400041c4:	c2 2e 20 0c 	stb  %g1, [ %i0 + 0xc ]
400041c8:	81 c7 e0 08 	ret 
400041cc:	81 e8 00 00 	restore 
400041d0:	10 bf ff dd 	b  40004144 <ajit_read_thread_descriptor+0x6c>
400041d4:	84 10 20 20 	mov  0x20, %g2

400041d8 <ajit_get_core_and_thread_id>:
400041d8:	83 47 40 00 	rd  %asr29, %g1
400041dc:	85 30 60 08 	srl  %g1, 8, %g2
400041e0:	c4 2a 00 00 	stb  %g2, [ %o0 ]
400041e4:	81 c3 e0 08 	retl 
400041e8:	c2 2a 40 00 	stb  %g1, [ %o1 ]

400041ec <__ajit_read_cycle_count_register_high__>:
400041ec:	91 47 80 00 	rd  %asr30, %o0
400041f0:	81 c3 e0 08 	retl 
400041f4:	01 00 00 00 	nop 

400041f8 <__ajit_read_cycle_count_register_low__>:
400041f8:	91 47 c0 00 	rd  %asr31, %o0
400041fc:	81 c3 e0 08 	retl 
40004200:	01 00 00 00 	nop 

40004204 <__ajit_get_clock_time>:
40004204:	99 47 c0 00 	rd  %asr31, %o4
40004208:	83 47 80 00 	rd  %asr30, %g1
4000420c:	86 10 20 00 	clr  %g3
40004210:	9a 10 00 0c 	mov  %o4, %o5
40004214:	98 10 20 00 	clr  %o4
40004218:	86 10 c0 0d 	or  %g3, %o5, %g3
4000421c:	84 10 40 0c 	or  %g1, %o4, %g2
40004220:	92 10 00 03 	mov  %g3, %o1
40004224:	81 c3 e0 08 	retl 
40004228:	90 10 00 02 	mov  %g2, %o0

4000422c <__ajit_sleep__>:
4000422c:	95 47 c0 00 	rd  %asr31, %o2
40004230:	83 47 80 00 	rd  %asr30, %g1
40004234:	9a 10 20 00 	clr  %o5
40004238:	96 10 00 0a 	mov  %o2, %o3
4000423c:	9a 13 40 0b 	or  %o5, %o3, %o5
40004240:	92 83 40 08 	addcc  %o5, %o0, %o1
40004244:	94 10 20 00 	clr  %o2
40004248:	98 10 40 0a 	or  %g1, %o2, %o4
4000424c:	90 43 20 00 	addx  %o4, 0, %o0
40004250:	80 a2 00 0c 	cmp  %o0, %o4
40004254:	08 80 00 0c 	bleu  40004284 <__ajit_sleep__+0x58>
40004258:	01 00 00 00 	nop 
4000425c:	99 47 c0 00 	rd  %asr31, %o4
40004260:	83 47 80 00 	rd  %asr30, %g1
40004264:	86 10 20 00 	clr  %g3
40004268:	9a 10 00 0c 	mov  %o4, %o5
4000426c:	98 10 20 00 	clr  %o4
40004270:	98 10 40 0c 	or  %g1, %o4, %o4
40004274:	80 a2 00 0c 	cmp  %o0, %o4
40004278:	18 bf ff f9 	bgu  4000425c <__ajit_sleep__+0x30>
4000427c:	9a 10 c0 0d 	or  %g3, %o5, %o5
40004280:	80 a2 00 0c 	cmp  %o0, %o4
40004284:	12 80 00 04 	bne  40004294 <__ajit_sleep__+0x68>
40004288:	80 a2 40 0d 	cmp  %o1, %o5
4000428c:	18 bf ff f4 	bgu  4000425c <__ajit_sleep__+0x30>
40004290:	01 00 00 00 	nop 
40004294:	81 c3 e0 08 	retl 
40004298:	01 00 00 00 	nop 

4000429c <__ajit_set_mmu_default_cacheable_bit__>:
4000429c:	80 a0 00 08 	cmp  %g0, %o0
400042a0:	84 10 20 00 	clr  %g2
400042a4:	82 40 20 00 	addx  %g0, 0, %g1
400042a8:	83 28 60 08 	sll  %g1, 8, %g1
400042ac:	c2 a0 80 80 	sta  %g1, [ %g2 ] #ASI_N
400042b0:	81 c3 e0 08 	retl 
400042b4:	01 00 00 00 	nop 

400042b8 <__ajit_store_word_mmu_reg__>:
400042b8:	d0 a2 40 80 	sta  %o0, [ %o1 ] #ASI_N
400042bc:	81 c3 e0 08 	retl 
400042c0:	01 00 00 00 	nop 

400042c4 <__ajit_store_word_mmu_bypass__>:
400042c4:	d0 a2 44 00 	sta  %o0, [ %o1 ] #ASI_SCRATCHPAD
400042c8:	81 c3 e0 08 	retl 
400042cc:	01 00 00 00 	nop 

400042d0 <__ajit_store_word_to_physical_address__>:
400042d0:	86 0a 60 0f 	and  %o1, 0xf, %g3
400042d4:	80 a0 e0 0f 	cmp  %g3, 0xf
400042d8:	08 80 00 05 	bleu  400042ec <__ajit_store_word_to_physical_address__+0x1c>
400042dc:	83 28 e0 02 	sll  %g3, 2, %g1
400042e0:	d0 a2 84 00 	sta  %o0, [ %o2 ] #ASI_SCRATCHPAD
400042e4:	81 c3 e0 08 	retl 
400042e8:	01 00 00 00 	nop 
400042ec:	05 10 00 0f 	sethi  %hi(0x40003c00), %g2
400042f0:	84 10 a2 6c 	or  %g2, 0x26c, %g2	! 40003e6c <ajit_barebones_clock+0x28>
400042f4:	c2 00 80 01 	ld  [ %g2 + %g1 ], %g1
400042f8:	81 c0 40 00 	jmp  %g1
400042fc:	01 00 00 00 	nop 
40004300:	d0 a2 85 c0 	sta  %o0, [ %o2 ] (46)
40004304:	81 c3 e0 08 	retl 
40004308:	01 00 00 00 	nop 
4000430c:	d0 a2 85 e0 	sta  %o0, [ %o2 ] (47)
40004310:	81 c3 e0 08 	retl 
40004314:	01 00 00 00 	nop 
40004318:	d0 a2 84 20 	sta  %o0, [ %o2 ] #ASI_MMU
4000431c:	81 c3 e0 08 	retl 
40004320:	01 00 00 00 	nop 
40004324:	d0 a2 84 40 	sta  %o0, [ %o2 ] (34)
40004328:	81 c3 e0 08 	retl 
4000432c:	01 00 00 00 	nop 
40004330:	d0 a2 84 60 	sta  %o0, [ %o2 ] #ASI_BLK_INIT_QUAD_LDD_AIUS
40004334:	81 c3 e0 08 	retl 
40004338:	01 00 00 00 	nop 
4000433c:	d0 a2 84 80 	sta  %o0, [ %o2 ] #ASI_NUCLEUS_QUAD_LDD
40004340:	81 c3 e0 08 	retl 
40004344:	01 00 00 00 	nop 
40004348:	d0 a2 84 a0 	sta  %o0, [ %o2 ] #ASI_QUEUE
4000434c:	81 c3 e0 08 	retl 
40004350:	01 00 00 00 	nop 
40004354:	d0 a2 84 c0 	sta  %o0, [ %o2 ] #ASI_QUAD_LDD_PHYS_4V
40004358:	81 c3 e0 08 	retl 
4000435c:	01 00 00 00 	nop 
40004360:	d0 a2 84 e0 	sta  %o0, [ %o2 ] (39)
40004364:	81 c3 e0 08 	retl 
40004368:	01 00 00 00 	nop 
4000436c:	d0 a2 85 00 	sta  %o0, [ %o2 ] (40)
40004370:	81 c3 e0 08 	retl 
40004374:	01 00 00 00 	nop 
40004378:	d0 a2 85 20 	sta  %o0, [ %o2 ] (41)
4000437c:	81 c3 e0 08 	retl 
40004380:	01 00 00 00 	nop 
40004384:	d0 a2 85 40 	sta  %o0, [ %o2 ] (42)
40004388:	81 c3 e0 08 	retl 
4000438c:	01 00 00 00 	nop 
40004390:	d0 a2 85 60 	sta  %o0, [ %o2 ] (43)
40004394:	81 c3 e0 08 	retl 
40004398:	01 00 00 00 	nop 
4000439c:	d0 a2 85 80 	sta  %o0, [ %o2 ] #ASI_NUCLEUS_QUAD_LDD_L
400043a0:	81 c3 e0 08 	retl 
400043a4:	01 00 00 00 	nop 
400043a8:	d0 a2 85 a0 	sta  %o0, [ %o2 ] (45)
400043ac:	81 c3 e0 08 	retl 
400043b0:	01 00 00 00 	nop 

400043b4 <__ajit_load_word_from_physical_address__>:
400043b4:	86 0a 20 0f 	and  %o0, 0xf, %g3
400043b8:	80 a0 e0 0f 	cmp  %g3, 0xf
400043bc:	08 80 00 05 	bleu  400043d0 <__ajit_load_word_from_physical_address__+0x1c>
400043c0:	83 28 e0 02 	sll  %g3, 2, %g1
400043c4:	d0 82 44 00 	lda  [ %o1 ] #ASI_SCRATCHPAD, %o0
400043c8:	81 c3 e0 08 	retl 
400043cc:	01 00 00 00 	nop 
400043d0:	05 10 00 0f 	sethi  %hi(0x40003c00), %g2
400043d4:	84 10 a2 ac 	or  %g2, 0x2ac, %g2	! 40003eac <ajit_barebones_clock+0x68>
400043d8:	c2 00 80 01 	ld  [ %g2 + %g1 ], %g1
400043dc:	81 c0 40 00 	jmp  %g1
400043e0:	01 00 00 00 	nop 
400043e4:	d0 82 45 c0 	lda  [ %o1 ] (46), %o0
400043e8:	81 c3 e0 08 	retl 
400043ec:	01 00 00 00 	nop 
400043f0:	d0 82 45 e0 	lda  [ %o1 ] (47), %o0
400043f4:	81 c3 e0 08 	retl 
400043f8:	01 00 00 00 	nop 
400043fc:	d0 82 44 20 	lda  [ %o1 ] #ASI_MMU, %o0
40004400:	81 c3 e0 08 	retl 
40004404:	01 00 00 00 	nop 
40004408:	d0 82 44 40 	lda  [ %o1 ] (34), %o0
4000440c:	81 c3 e0 08 	retl 
40004410:	01 00 00 00 	nop 
40004414:	d0 82 44 60 	lda  [ %o1 ] #ASI_BLK_INIT_QUAD_LDD_AIUS, %o0
40004418:	81 c3 e0 08 	retl 
4000441c:	01 00 00 00 	nop 
40004420:	d0 82 44 80 	lda  [ %o1 ] #ASI_NUCLEUS_QUAD_LDD, %o0
40004424:	81 c3 e0 08 	retl 
40004428:	01 00 00 00 	nop 
4000442c:	d0 82 44 a0 	lda  [ %o1 ] #ASI_QUEUE, %o0
40004430:	81 c3 e0 08 	retl 
40004434:	01 00 00 00 	nop 
40004438:	d0 82 44 c0 	lda  [ %o1 ] #ASI_QUAD_LDD_PHYS_4V, %o0
4000443c:	81 c3 e0 08 	retl 
40004440:	01 00 00 00 	nop 
40004444:	d0 82 44 e0 	lda  [ %o1 ] (39), %o0
40004448:	81 c3 e0 08 	retl 
4000444c:	01 00 00 00 	nop 
40004450:	d0 82 45 00 	lda  [ %o1 ] (40), %o0
40004454:	81 c3 e0 08 	retl 
40004458:	01 00 00 00 	nop 
4000445c:	d0 82 45 20 	lda  [ %o1 ] (41), %o0
40004460:	81 c3 e0 08 	retl 
40004464:	01 00 00 00 	nop 
40004468:	d0 82 45 40 	lda  [ %o1 ] (42), %o0
4000446c:	81 c3 e0 08 	retl 
40004470:	01 00 00 00 	nop 
40004474:	d0 82 45 60 	lda  [ %o1 ] (43), %o0
40004478:	81 c3 e0 08 	retl 
4000447c:	01 00 00 00 	nop 
40004480:	d0 82 45 80 	lda  [ %o1 ] #ASI_NUCLEUS_QUAD_LDD_L, %o0
40004484:	81 c3 e0 08 	retl 
40004488:	01 00 00 00 	nop 
4000448c:	d0 82 45 a0 	lda  [ %o1 ] (45), %o0
40004490:	81 c3 e0 08 	retl 
40004494:	01 00 00 00 	nop 

40004498 <__ajit_load_word_mmu_reg__>:
40004498:	d0 82 00 80 	lda  [ %o0 ] #ASI_N, %o0
4000449c:	81 c3 e0 08 	retl 
400044a0:	01 00 00 00 	nop 

400044a4 <__ajit_load_word_mmu_bypass__>:
400044a4:	d0 82 04 00 	lda  [ %o0 ] #ASI_SCRATCHPAD, %o0
400044a8:	81 c3 e0 08 	retl 
400044ac:	01 00 00 00 	nop 

400044b0 <__ajit_flush_icache__>:
400044b0:	81 d8 20 00 	flush  %g0
400044b4:	81 c3 e0 08 	retl 
400044b8:	01 00 00 00 	nop 

400044bc <__ajit_flush_dcache__>:
400044bc:	c0 a0 02 60 	sta  %g0, [ %g0 ] (19)
400044c0:	81 c3 e0 08 	retl 
400044c4:	01 00 00 00 	nop 

400044c8 <__ajit_write_timer_control_register__>:
400044c8:	03 3f ff cc 	sethi  %hi(0xffff3000), %g1
400044cc:	82 10 61 00 	or  %g1, 0x100, %g1	! ffff3100 <res+0xbffb2740>
400044d0:	d0 a0 44 00 	sta  %o0, [ %g1 ] #ASI_SCRATCHPAD
400044d4:	81 c3 e0 08 	retl 
400044d8:	01 00 00 00 	nop 

400044dc <__ajit_read_timer_control_register__>:
400044dc:	11 3f ff cc 	sethi  %hi(0xffff3000), %o0
400044e0:	90 12 21 00 	or  %o0, 0x100, %o0	! ffff3100 <res+0xbffb2740>
400044e4:	d0 82 04 00 	lda  [ %o0 ] #ASI_SCRATCHPAD, %o0
400044e8:	81 c3 e0 08 	retl 
400044ec:	01 00 00 00 	nop 

400044f0 <__ajit_write_timer_control_register_via_vmap__>:
400044f0:	03 3f ff cc 	sethi  %hi(0xffff3000), %g1
400044f4:	82 10 61 00 	or  %g1, 0x100, %g1	! ffff3100 <res+0xbffb2740>
400044f8:	81 c3 e0 08 	retl 
400044fc:	d0 20 40 00 	st  %o0, [ %g1 ]

40004500 <__ajit_read_timer_control_register_via_vmap__>:
40004500:	03 3f ff cc 	sethi  %hi(0xffff3000), %g1
40004504:	82 10 61 00 	or  %g1, 0x100, %g1	! ffff3100 <res+0xbffb2740>
40004508:	81 c3 e0 08 	retl 
4000450c:	d0 00 40 00 	ld  [ %g1 ], %o0

40004510 <__ajit_write_serial_control_register__>:
40004510:	03 3f ff cc 	sethi  %hi(0xffff3000), %g1
40004514:	82 10 62 00 	or  %g1, 0x200, %g1	! ffff3200 <res+0xbffb2840>
40004518:	d0 a0 44 00 	sta  %o0, [ %g1 ] #ASI_SCRATCHPAD
4000451c:	81 c3 e0 08 	retl 
40004520:	01 00 00 00 	nop 

40004524 <__ajit_serial_configure__>:
40004524:	05 3f ff cc 	sethi  %hi(0xffff3000), %g2
40004528:	84 10 a2 00 	or  %g2, 0x200, %g2	! ffff3200 <res+0xbffb2840>
4000452c:	c4 80 84 00 	lda  [ %g2 ] #ASI_SCRATCHPAD, %g2
40004530:	80 a2 20 00 	cmp  %o0, 0
40004534:	02 80 00 03 	be  40004540 <__ajit_serial_configure__+0x1c>
40004538:	82 08 bf fe 	and  %g2, -2, %g1
4000453c:	82 10 a0 01 	or  %g2, 1, %g1
40004540:	80 a2 60 00 	cmp  %o1, 0
40004544:	02 80 00 03 	be  40004550 <__ajit_serial_configure__+0x2c>
40004548:	84 08 7f fd 	and  %g1, -3, %g2
4000454c:	84 10 60 02 	or  %g1, 2, %g2
40004550:	80 a2 a0 00 	cmp  %o2, 0
40004554:	02 80 00 03 	be  40004560 <__ajit_serial_configure__+0x3c>
40004558:	82 08 bf fb 	and  %g2, -5, %g1
4000455c:	82 10 a0 04 	or  %g2, 4, %g1
40004560:	05 3f ff cc 	sethi  %hi(0xffff3000), %g2
40004564:	84 10 a2 00 	or  %g2, 0x200, %g2	! ffff3200 <res+0xbffb2840>
40004568:	c2 a0 84 00 	sta  %g1, [ %g2 ] #ASI_SCRATCHPAD
4000456c:	81 c3 e0 08 	retl 
40004570:	01 00 00 00 	nop 

40004574 <__ajit_serial_set_baudrate__>:
40004574:	91 2a 20 04 	sll  %o0, 4, %o0
40004578:	80 a2 00 09 	cmp  %o0, %o1
4000457c:	1a 80 00 26 	bcc  40004614 <__ajit_serial_set_baudrate__+0xa0>
40004580:	82 10 20 00 	clr  %g1
40004584:	80 a2 20 00 	cmp  %o0, 0
40004588:	22 80 00 24 	be,a   40004618 <__ajit_serial_set_baudrate__+0xa4>
4000458c:	05 3f ff cd 	sethi  %hi(0xffff3400), %g2
40004590:	84 10 00 09 	mov  %o1, %g2
40004594:	10 80 00 03 	b  400045a0 <__ajit_serial_set_baudrate__+0x2c>
40004598:	82 10 00 08 	mov  %o0, %g1
4000459c:	82 10 00 03 	mov  %g3, %g1
400045a0:	81 80 20 00 	mov  %g0, %y
400045a4:	01 00 00 00 	nop 
400045a8:	01 00 00 00 	nop 
400045ac:	01 00 00 00 	nop 
400045b0:	86 70 80 01 	udiv  %g2, %g1, %g3
400045b4:	86 58 c0 01 	smul  %g3, %g1, %g3
400045b8:	86 20 80 03 	sub  %g2, %g3, %g3
400045bc:	80 a0 e0 00 	cmp  %g3, 0
400045c0:	12 bf ff f7 	bne  4000459c <__ajit_serial_set_baudrate__+0x28>
400045c4:	84 10 00 01 	mov  %g1, %g2
400045c8:	81 80 20 00 	mov  %g0, %y
400045cc:	01 00 00 00 	nop 
400045d0:	01 00 00 00 	nop 
400045d4:	01 00 00 00 	nop 
400045d8:	84 72 00 01 	udiv  %o0, %g1, %g2
400045dc:	81 80 20 00 	mov  %g0, %y
400045e0:	01 00 00 00 	nop 
400045e4:	01 00 00 00 	nop 
400045e8:	01 00 00 00 	nop 
400045ec:	88 72 40 01 	udiv  %o1, %g1, %g4
400045f0:	86 08 af ff 	and  %g2, 0xfff, %g3
400045f4:	82 21 00 02 	sub  %g4, %g2, %g1
400045f8:	05 3f ff cd 	sethi  %hi(0xffff3400), %g2
400045fc:	83 28 60 10 	sll  %g1, 0x10, %g1
40004600:	84 10 a0 08 	or  %g2, 8, %g2
40004604:	82 10 40 03 	or  %g1, %g3, %g1
40004608:	c2 a0 84 00 	sta  %g1, [ %g2 ] #ASI_SCRATCHPAD
4000460c:	81 c3 e0 08 	retl 
40004610:	01 00 00 00 	nop 
40004614:	05 3f ff cd 	sethi  %hi(0xffff3400), %g2
40004618:	84 10 a0 08 	or  %g2, 8, %g2	! ffff3408 <res+0xbffb2a48>
4000461c:	c2 a0 84 00 	sta  %g1, [ %g2 ] #ASI_SCRATCHPAD
40004620:	81 c3 e0 08 	retl 
40004624:	01 00 00 00 	nop 

40004628 <__ajit_serial_set_baudrate_via_vmap__>:
40004628:	91 2a 20 04 	sll  %o0, 4, %o0
4000462c:	80 a2 00 09 	cmp  %o0, %o1
40004630:	1a 80 00 25 	bcc  400046c4 <__ajit_serial_set_baudrate_via_vmap__+0x9c>
40004634:	84 10 20 00 	clr  %g2
40004638:	80 a2 20 00 	cmp  %o0, 0
4000463c:	22 80 00 23 	be,a   400046c8 <__ajit_serial_set_baudrate_via_vmap__+0xa0>
40004640:	03 3f ff cd 	sethi  %hi(0xffff3400), %g1
40004644:	84 10 00 09 	mov  %o1, %g2
40004648:	10 80 00 03 	b  40004654 <__ajit_serial_set_baudrate_via_vmap__+0x2c>
4000464c:	82 10 00 08 	mov  %o0, %g1
40004650:	82 10 00 03 	mov  %g3, %g1
40004654:	81 80 20 00 	mov  %g0, %y
40004658:	01 00 00 00 	nop 
4000465c:	01 00 00 00 	nop 
40004660:	01 00 00 00 	nop 
40004664:	86 70 80 01 	udiv  %g2, %g1, %g3
40004668:	86 58 c0 01 	smul  %g3, %g1, %g3
4000466c:	86 20 80 03 	sub  %g2, %g3, %g3
40004670:	80 a0 e0 00 	cmp  %g3, 0
40004674:	12 bf ff f7 	bne  40004650 <__ajit_serial_set_baudrate_via_vmap__+0x28>
40004678:	84 10 00 01 	mov  %g1, %g2
4000467c:	81 80 20 00 	mov  %g0, %y
40004680:	01 00 00 00 	nop 
40004684:	01 00 00 00 	nop 
40004688:	01 00 00 00 	nop 
4000468c:	86 72 00 01 	udiv  %o0, %g1, %g3
40004690:	81 80 20 00 	mov  %g0, %y
40004694:	01 00 00 00 	nop 
40004698:	01 00 00 00 	nop 
4000469c:	01 00 00 00 	nop 
400046a0:	84 72 40 01 	udiv  %o1, %g1, %g2
400046a4:	82 08 ef ff 	and  %g3, 0xfff, %g1
400046a8:	84 20 80 03 	sub  %g2, %g3, %g2
400046ac:	85 28 a0 10 	sll  %g2, 0x10, %g2
400046b0:	84 10 80 01 	or  %g2, %g1, %g2
400046b4:	03 3f ff cd 	sethi  %hi(0xffff3400), %g1
400046b8:	82 10 60 08 	or  %g1, 8, %g1	! ffff3408 <res+0xbffb2a48>
400046bc:	81 c3 e0 08 	retl 
400046c0:	c4 20 40 00 	st  %g2, [ %g1 ]
400046c4:	03 3f ff cd 	sethi  %hi(0xffff3400), %g1
400046c8:	82 10 60 08 	or  %g1, 8, %g1	! ffff3408 <res+0xbffb2a48>
400046cc:	81 c3 e0 08 	retl 
400046d0:	c4 20 40 00 	st  %g2, [ %g1 ]

400046d4 <calculate_baud_control_word_for_uart>:
400046d4:	91 2a 20 04 	sll  %o0, 4, %o0
400046d8:	80 a2 00 09 	cmp  %o0, %o1
400046dc:	1a 80 00 20 	bcc  4000475c <calculate_baud_control_word_for_uart+0x88>
400046e0:	80 a2 20 00 	cmp  %o0, 0
400046e4:	02 80 00 1e 	be  4000475c <calculate_baud_control_word_for_uart+0x88>
400046e8:	84 10 00 09 	mov  %o1, %g2
400046ec:	10 80 00 03 	b  400046f8 <calculate_baud_control_word_for_uart+0x24>
400046f0:	82 10 00 08 	mov  %o0, %g1
400046f4:	82 10 00 03 	mov  %g3, %g1
400046f8:	81 80 20 00 	mov  %g0, %y
400046fc:	01 00 00 00 	nop 
40004700:	01 00 00 00 	nop 
40004704:	01 00 00 00 	nop 
40004708:	86 70 80 01 	udiv  %g2, %g1, %g3
4000470c:	86 58 c0 01 	smul  %g3, %g1, %g3
40004710:	86 20 80 03 	sub  %g2, %g3, %g3
40004714:	80 a0 e0 00 	cmp  %g3, 0
40004718:	12 bf ff f7 	bne  400046f4 <calculate_baud_control_word_for_uart+0x20>
4000471c:	84 10 00 01 	mov  %g1, %g2
40004720:	81 80 20 00 	mov  %g0, %y
40004724:	01 00 00 00 	nop 
40004728:	01 00 00 00 	nop 
4000472c:	01 00 00 00 	nop 
40004730:	84 72 00 01 	udiv  %o0, %g1, %g2
40004734:	81 80 20 00 	mov  %g0, %y
40004738:	01 00 00 00 	nop 
4000473c:	01 00 00 00 	nop 
40004740:	01 00 00 00 	nop 
40004744:	90 72 40 01 	udiv  %o1, %g1, %o0
40004748:	82 08 af ff 	and  %g2, 0xfff, %g1
4000474c:	90 22 00 02 	sub  %o0, %g2, %o0
40004750:	91 2a 20 10 	sll  %o0, 0x10, %o0
40004754:	81 c3 e0 08 	retl 
40004758:	90 12 00 01 	or  %o0, %g1, %o0
4000475c:	81 c3 e0 08 	retl 
40004760:	90 10 20 00 	clr  %o0

40004764 <__ajit_serial_set_baudrate_inner__>:
40004764:	93 2a 60 04 	sll  %o1, 4, %o1
40004768:	80 a2 40 0a 	cmp  %o1, %o2
4000476c:	1a 80 00 27 	bcc  40004808 <__ajit_serial_set_baudrate_inner__+0xa4>
40004770:	05 3f ff cd 	sethi  %hi(0xffff3400), %g2
40004774:	80 a2 60 00 	cmp  %o1, 0
40004778:	22 80 00 25 	be,a   4000480c <__ajit_serial_set_baudrate_inner__+0xa8>
4000477c:	82 10 20 00 	clr  %g1
40004780:	84 10 00 0a 	mov  %o2, %g2
40004784:	10 80 00 03 	b  40004790 <__ajit_serial_set_baudrate_inner__+0x2c>
40004788:	82 10 00 09 	mov  %o1, %g1
4000478c:	82 10 00 03 	mov  %g3, %g1
40004790:	81 80 20 00 	mov  %g0, %y
40004794:	01 00 00 00 	nop 
40004798:	01 00 00 00 	nop 
4000479c:	01 00 00 00 	nop 
400047a0:	86 70 80 01 	udiv  %g2, %g1, %g3
400047a4:	86 58 c0 01 	smul  %g3, %g1, %g3
400047a8:	86 20 80 03 	sub  %g2, %g3, %g3
400047ac:	80 a0 e0 00 	cmp  %g3, 0
400047b0:	12 bf ff f7 	bne  4000478c <__ajit_serial_set_baudrate_inner__+0x28>
400047b4:	84 10 00 01 	mov  %g1, %g2
400047b8:	81 80 20 00 	mov  %g0, %y
400047bc:	01 00 00 00 	nop 
400047c0:	01 00 00 00 	nop 
400047c4:	01 00 00 00 	nop 
400047c8:	84 72 40 01 	udiv  %o1, %g1, %g2
400047cc:	81 80 20 00 	mov  %g0, %y
400047d0:	01 00 00 00 	nop 
400047d4:	01 00 00 00 	nop 
400047d8:	01 00 00 00 	nop 
400047dc:	88 72 80 01 	udiv  %o2, %g1, %g4
400047e0:	86 08 af ff 	and  %g2, 0xfff, %g3
400047e4:	82 21 00 02 	sub  %g4, %g2, %g1
400047e8:	80 a2 20 00 	cmp  %o0, 0
400047ec:	83 28 60 10 	sll  %g1, 0x10, %g1
400047f0:	05 3f ff cd 	sethi  %hi(0xffff3400), %g2
400047f4:	82 10 40 03 	or  %g1, %g3, %g1
400047f8:	02 80 00 08 	be  40004818 <__ajit_serial_set_baudrate_inner__+0xb4>
400047fc:	84 10 a0 08 	or  %g2, 8, %g2
40004800:	81 c3 e0 08 	retl 
40004804:	c2 20 80 00 	st  %g1, [ %g2 ]
40004808:	82 10 20 00 	clr  %g1
4000480c:	80 a2 20 00 	cmp  %o0, 0
40004810:	12 bf ff fc 	bne  40004800 <__ajit_serial_set_baudrate_inner__+0x9c>
40004814:	84 10 a0 08 	or  %g2, 8, %g2
40004818:	c2 a0 84 00 	sta  %g1, [ %g2 ] #ASI_SCRATCHPAD
4000481c:	81 c3 e0 08 	retl 
40004820:	01 00 00 00 	nop 

40004824 <__ajit_read_serial_control_register__>:
40004824:	11 3f ff cc 	sethi  %hi(0xffff3000), %o0
40004828:	90 12 22 00 	or  %o0, 0x200, %o0	! ffff3200 <res+0xbffb2840>
4000482c:	d0 82 04 00 	lda  [ %o0 ] #ASI_SCRATCHPAD, %o0
40004830:	81 c3 e0 08 	retl 
40004834:	01 00 00 00 	nop 

40004838 <__ajit_write_serial_tx_register__>:
40004838:	03 3f ff cc 	sethi  %hi(0xffff3000), %g1
4000483c:	82 10 62 04 	or  %g1, 0x204, %g1	! ffff3204 <res+0xbffb2844>
40004840:	d0 a8 44 00 	stba  %o0, [ %g1 ] #ASI_SCRATCHPAD
40004844:	81 c3 e0 08 	retl 
40004848:	01 00 00 00 	nop 

4000484c <__ajit_read_serial_tx_register__>:
4000484c:	11 3f ff cc 	sethi  %hi(0xffff3000), %o0
40004850:	90 12 22 04 	or  %o0, 0x204, %o0	! ffff3204 <res+0xbffb2844>
40004854:	d0 8a 04 00 	lduba  [ %o0 ] #ASI_SCRATCHPAD, %o0
40004858:	81 c3 e0 08 	retl 
4000485c:	90 0a 20 ff 	and  %o0, 0xff, %o0

40004860 <__ajit_read_serial_rx_register__>:
40004860:	11 3f ff cc 	sethi  %hi(0xffff3000), %o0
40004864:	90 12 22 08 	or  %o0, 0x208, %o0	! ffff3208 <res+0xbffb2848>
40004868:	d0 8a 04 00 	lduba  [ %o0 ] #ASI_SCRATCHPAD, %o0
4000486c:	81 c3 e0 08 	retl 
40004870:	90 0a 20 ff 	and  %o0, 0xff, %o0

40004874 <__ajit_serial_putchar__>:
40004874:	05 3f ff cc 	sethi  %hi(0xffff3000), %g2
40004878:	82 10 a2 00 	or  %g2, 0x200, %g1	! ffff3200 <res+0xbffb2840>
4000487c:	c2 80 44 00 	lda  [ %g1 ] #ASI_SCRATCHPAD, %g1
40004880:	80 88 60 01 	btst  1, %g1
40004884:	02 80 00 07 	be  400048a0 <__ajit_serial_putchar__+0x2c>
40004888:	86 10 20 00 	clr  %g3
4000488c:	80 88 60 08 	btst  8, %g1
40004890:	12 80 00 04 	bne  400048a0 <__ajit_serial_putchar__+0x2c>
40004894:	84 10 a2 04 	or  %g2, 0x204, %g2
40004898:	d0 a8 84 00 	stba  %o0, [ %g2 ] #ASI_SCRATCHPAD
4000489c:	86 10 00 08 	mov  %o0, %g3
400048a0:	81 c3 e0 08 	retl 
400048a4:	90 10 00 03 	mov  %g3, %o0

400048a8 <__ajit_serial_getchar__>:
400048a8:	03 3f ff cc 	sethi  %hi(0xffff3000), %g1
400048ac:	84 10 62 00 	or  %g1, 0x200, %g2	! ffff3200 <res+0xbffb2840>
400048b0:	c4 80 84 00 	lda  [ %g2 ] #ASI_SCRATCHPAD, %g2
400048b4:	84 08 a0 12 	and  %g2, 0x12, %g2
400048b8:	80 a0 a0 12 	cmp  %g2, 0x12
400048bc:	12 80 00 04 	bne  400048cc <__ajit_serial_getchar__+0x24>
400048c0:	90 10 20 00 	clr  %o0
400048c4:	90 10 62 08 	or  %g1, 0x208, %o0
400048c8:	d0 8a 04 00 	lduba  [ %o0 ] #ASI_SCRATCHPAD, %o0
400048cc:	81 c3 e0 08 	retl 
400048d0:	01 00 00 00 	nop 

400048d4 <__ajit_serial_puts__>:
400048d4:	19 3f ff cc 	sethi  %hi(0xffff3000), %o4
400048d8:	9a 10 20 00 	clr  %o5
400048dc:	84 13 22 00 	or  %o4, 0x200, %g2
400048e0:	88 10 20 00 	clr  %g4
400048e4:	80 a2 60 00 	cmp  %o1, 0
400048e8:	02 80 00 12 	be  40004930 <__ajit_serial_puts__+0x5c>
400048ec:	98 13 22 04 	or  %o4, 0x204, %o4
400048f0:	c6 0a 00 0d 	ldub  [ %o0 + %o5 ], %g3
400048f4:	c2 80 84 00 	lda  [ %g2 ] #ASI_SCRATCHPAD, %g1
400048f8:	80 88 60 01 	btst  1, %g1
400048fc:	02 bf ff fe 	be  400048f4 <__ajit_serial_puts__+0x20>
40004900:	80 88 60 08 	btst  8, %g1
40004904:	12 bf ff fc 	bne  400048f4 <__ajit_serial_puts__+0x20>
40004908:	01 00 00 00 	nop 
4000490c:	c6 ab 04 00 	stba  %g3, [ %o4 ] #ASI_SCRATCHPAD
40004910:	87 28 e0 18 	sll  %g3, 0x18, %g3
40004914:	80 a0 e0 00 	cmp  %g3, 0
40004918:	22 bf ff f7 	be,a   400048f4 <__ajit_serial_puts__+0x20>
4000491c:	c6 0a 00 0d 	ldub  [ %o0 + %o5 ], %g3
40004920:	88 01 20 01 	inc  %g4
40004924:	80 a1 00 09 	cmp  %g4, %o1
40004928:	12 bf ff f2 	bne  400048f0 <__ajit_serial_puts__+0x1c>
4000492c:	9a 10 00 04 	mov  %g4, %o5
40004930:	81 c3 e0 08 	retl 
40004934:	01 00 00 00 	nop 

40004938 <__ajit_serial_gets__>:
40004938:	80 a2 60 00 	cmp  %o1, 0
4000493c:	02 80 00 15 	be  40004990 <__ajit_serial_gets__+0x58>
40004940:	09 3f ff cc 	sethi  %hi(0xffff3000), %g4
40004944:	9a 10 20 00 	clr  %o5
40004948:	84 11 22 00 	or  %g4, 0x200, %g2
4000494c:	86 10 20 00 	clr  %g3
40004950:	88 11 22 08 	or  %g4, 0x208, %g4
40004954:	c2 80 84 00 	lda  [ %g2 ] #ASI_SCRATCHPAD, %g1
40004958:	80 88 60 02 	btst  2, %g1
4000495c:	02 bf ff fe 	be  40004954 <__ajit_serial_gets__+0x1c>
40004960:	80 88 60 10 	btst  0x10, %g1
40004964:	02 bf ff fc 	be  40004954 <__ajit_serial_gets__+0x1c>
40004968:	01 00 00 00 	nop 
4000496c:	c2 89 04 00 	lduba  [ %g4 ] #ASI_SCRATCHPAD, %g1
40004970:	80 a0 60 00 	cmp  %g1, 0
40004974:	02 bf ff f8 	be  40004954 <__ajit_serial_gets__+0x1c>
40004978:	01 00 00 00 	nop 
4000497c:	c2 2a 00 0d 	stb  %g1, [ %o0 + %o5 ]
40004980:	86 00 e0 01 	inc  %g3
40004984:	80 a0 c0 09 	cmp  %g3, %o1
40004988:	12 bf ff f3 	bne  40004954 <__ajit_serial_gets__+0x1c>
4000498c:	9a 10 00 03 	mov  %g3, %o5
40004990:	81 c3 e0 08 	retl 
40004994:	01 00 00 00 	nop 

40004998 <__ajit_write_serial_control_register_via_vmap__>:
40004998:	03 3f ff cc 	sethi  %hi(0xffff3000), %g1
4000499c:	82 10 62 00 	or  %g1, 0x200, %g1	! ffff3200 <res+0xbffb2840>
400049a0:	81 c3 e0 08 	retl 
400049a4:	d0 20 40 00 	st  %o0, [ %g1 ]

400049a8 <__ajit_read_serial_control_register_via_vmap__>:
400049a8:	03 3f ff cc 	sethi  %hi(0xffff3000), %g1
400049ac:	82 10 62 00 	or  %g1, 0x200, %g1	! ffff3200 <res+0xbffb2840>
400049b0:	81 c3 e0 08 	retl 
400049b4:	d0 08 40 00 	ldub  [ %g1 ], %o0

400049b8 <__ajit_write_serial_tx_register_via_vmap__>:
400049b8:	03 3f ff cc 	sethi  %hi(0xffff3000), %g1
400049bc:	82 10 62 04 	or  %g1, 0x204, %g1	! ffff3204 <res+0xbffb2844>
400049c0:	81 c3 e0 08 	retl 
400049c4:	d0 28 40 00 	stb  %o0, [ %g1 ]

400049c8 <__ajit_read_serial_tx_register_via_vmap__>:
400049c8:	03 3f ff cc 	sethi  %hi(0xffff3000), %g1
400049cc:	82 10 62 04 	or  %g1, 0x204, %g1	! ffff3204 <res+0xbffb2844>
400049d0:	81 c3 e0 08 	retl 
400049d4:	d0 08 40 00 	ldub  [ %g1 ], %o0

400049d8 <__ajit_read_serial_rx_register_via_vmap__>:
400049d8:	03 3f ff cc 	sethi  %hi(0xffff3000), %g1
400049dc:	82 10 62 08 	or  %g1, 0x208, %g1	! ffff3208 <res+0xbffb2848>
400049e0:	81 c3 e0 08 	retl 
400049e4:	d0 08 40 00 	ldub  [ %g1 ], %o0

400049e8 <__ajit_serial_putchar_via_vmap__>:
400049e8:	05 3f ff cc 	sethi  %hi(0xffff3000), %g2
400049ec:	82 10 a2 00 	or  %g2, 0x200, %g1	! ffff3200 <res+0xbffb2840>
400049f0:	c2 00 40 00 	ld  [ %g1 ], %g1
400049f4:	80 88 60 01 	btst  1, %g1
400049f8:	02 80 00 07 	be  40004a14 <__ajit_serial_putchar_via_vmap__+0x2c>
400049fc:	86 10 20 00 	clr  %g3
40004a00:	80 88 60 08 	btst  8, %g1
40004a04:	12 80 00 04 	bne  40004a14 <__ajit_serial_putchar_via_vmap__+0x2c>
40004a08:	84 10 a2 04 	or  %g2, 0x204, %g2
40004a0c:	86 10 00 08 	mov  %o0, %g3
40004a10:	d0 28 80 00 	stb  %o0, [ %g2 ]
40004a14:	81 c3 e0 08 	retl 
40004a18:	90 10 00 03 	mov  %g3, %o0

40004a1c <__ajit_serial_getchar_via_vmap__>:
40004a1c:	03 3f ff cc 	sethi  %hi(0xffff3000), %g1
40004a20:	84 10 62 00 	or  %g1, 0x200, %g2	! ffff3200 <res+0xbffb2840>
40004a24:	c4 00 80 00 	ld  [ %g2 ], %g2
40004a28:	84 08 a0 12 	and  %g2, 0x12, %g2
40004a2c:	80 a0 a0 12 	cmp  %g2, 0x12
40004a30:	12 80 00 04 	bne  40004a40 <__ajit_serial_getchar_via_vmap__+0x24>
40004a34:	90 10 20 00 	clr  %o0
40004a38:	82 10 62 08 	or  %g1, 0x208, %g1
40004a3c:	d0 08 40 00 	ldub  [ %g1 ], %o0
40004a40:	81 c3 e0 08 	retl 
40004a44:	01 00 00 00 	nop 

40004a48 <__ajit_serial_puts_via_vmap__>:
40004a48:	19 3f ff cc 	sethi  %hi(0xffff3000), %o4
40004a4c:	88 10 20 00 	clr  %g4
40004a50:	9a 13 22 00 	or  %o4, 0x200, %o5
40004a54:	86 10 20 00 	clr  %g3
40004a58:	80 a2 60 00 	cmp  %o1, 0
40004a5c:	02 80 00 14 	be  40004aac <__ajit_serial_puts_via_vmap__+0x64>
40004a60:	98 13 22 04 	or  %o4, 0x204, %o4
40004a64:	c4 03 40 00 	ld  [ %o5 ], %g2
40004a68:	80 88 a0 01 	btst  1, %g2
40004a6c:	12 80 00 03 	bne  40004a78 <__ajit_serial_puts_via_vmap__+0x30>
40004a70:	c2 0a 00 04 	ldub  [ %o0 + %g4 ], %g1
40004a74:	30 80 00 00 	b,a   40004a74 <__ajit_serial_puts_via_vmap__+0x2c>
40004a78:	84 08 a0 08 	and  %g2, 8, %g2
40004a7c:	80 a0 a0 00 	cmp  %g2, 0
40004a80:	12 80 00 00 	bne  40004a80 <__ajit_serial_puts_via_vmap__+0x38>
40004a84:	01 00 00 00 	nop 
40004a88:	c2 2b 00 00 	stb  %g1, [ %o4 ]
40004a8c:	83 28 60 18 	sll  %g1, 0x18, %g1
40004a90:	80 a0 60 00 	cmp  %g1, 0
40004a94:	22 bf ff f5 	be,a   40004a68 <__ajit_serial_puts_via_vmap__+0x20>
40004a98:	c4 03 40 00 	ld  [ %o5 ], %g2
40004a9c:	86 00 e0 01 	inc  %g3
40004aa0:	80 a0 c0 09 	cmp  %g3, %o1
40004aa4:	12 bf ff f0 	bne  40004a64 <__ajit_serial_puts_via_vmap__+0x1c>
40004aa8:	88 10 00 03 	mov  %g3, %g4
40004aac:	81 c3 e0 08 	retl 
40004ab0:	01 00 00 00 	nop 

40004ab4 <__ajit_serial_gets_via_vmap__>:
40004ab4:	09 3f ff cc 	sethi  %hi(0xffff3000), %g4
40004ab8:	9a 10 20 00 	clr  %o5
40004abc:	86 11 22 00 	or  %g4, 0x200, %g3
40004ac0:	84 10 20 00 	clr  %g2
40004ac4:	80 a2 60 00 	cmp  %o1, 0
40004ac8:	02 80 00 12 	be  40004b10 <__ajit_serial_gets_via_vmap__+0x5c>
40004acc:	88 11 22 08 	or  %g4, 0x208, %g4
40004ad0:	c2 00 c0 00 	ld  [ %g3 ], %g1
40004ad4:	80 88 60 02 	btst  2, %g1
40004ad8:	12 80 00 03 	bne  40004ae4 <__ajit_serial_gets_via_vmap__+0x30>
40004adc:	80 88 60 10 	btst  0x10, %g1
40004ae0:	30 80 00 00 	b,a   40004ae0 <__ajit_serial_gets_via_vmap__+0x2c>
40004ae4:	32 80 00 03 	bne,a   40004af0 <__ajit_serial_gets_via_vmap__+0x3c>
40004ae8:	c2 09 00 00 	ldub  [ %g4 ], %g1
40004aec:	30 80 00 00 	b,a   40004aec <__ajit_serial_gets_via_vmap__+0x38>
40004af0:	80 a0 60 00 	cmp  %g1, 0
40004af4:	22 bf ff f8 	be,a   40004ad4 <__ajit_serial_gets_via_vmap__+0x20>
40004af8:	c2 00 c0 00 	ld  [ %g3 ], %g1
40004afc:	c2 2a 00 0d 	stb  %g1, [ %o0 + %o5 ]
40004b00:	84 00 a0 01 	inc  %g2
40004b04:	80 a0 80 09 	cmp  %g2, %o1
40004b08:	12 bf ff f2 	bne  40004ad0 <__ajit_serial_gets_via_vmap__+0x1c>
40004b0c:	9a 10 00 02 	mov  %g2, %o5
40004b10:	81 c3 e0 08 	retl 
40004b14:	01 00 00 00 	nop 

40004b18 <__ajit_serial_configure_via_vmap__>:
40004b18:	03 3f ff cc 	sethi  %hi(0xffff3000), %g1
40004b1c:	82 10 62 00 	or  %g1, 0x200, %g1	! ffff3200 <res+0xbffb2840>
40004b20:	80 a2 20 00 	cmp  %o0, 0
40004b24:	c4 00 40 00 	ld  [ %g1 ], %g2
40004b28:	02 80 00 03 	be  40004b34 <__ajit_serial_configure_via_vmap__+0x1c>
40004b2c:	82 08 bf fe 	and  %g2, -2, %g1
40004b30:	82 10 a0 01 	or  %g2, 1, %g1
40004b34:	80 a2 60 00 	cmp  %o1, 0
40004b38:	02 80 00 03 	be  40004b44 <__ajit_serial_configure_via_vmap__+0x2c>
40004b3c:	84 08 7f fd 	and  %g1, -3, %g2
40004b40:	84 10 60 02 	or  %g1, 2, %g2
40004b44:	80 a2 a0 00 	cmp  %o2, 0
40004b48:	02 80 00 03 	be  40004b54 <__ajit_serial_configure_via_vmap__+0x3c>
40004b4c:	82 08 bf fb 	and  %g2, -5, %g1
40004b50:	82 10 a0 04 	or  %g2, 4, %g1
40004b54:	05 3f ff cc 	sethi  %hi(0xffff3000), %g2
40004b58:	84 10 a2 00 	or  %g2, 0x200, %g2	! ffff3200 <res+0xbffb2840>
40004b5c:	81 c3 e0 08 	retl 
40004b60:	c2 20 80 00 	st  %g1, [ %g2 ]

40004b64 <__ajit_serial_uart_reset_via_vmap__>:
40004b64:	03 3f ff cc 	sethi  %hi(0xffff3000), %g1
40004b68:	82 10 62 00 	or  %g1, 0x200, %g1	! ffff3200 <res+0xbffb2840>
40004b6c:	c4 08 40 00 	ldub  [ %g1 ], %g2
40004b70:	81 c3 e0 08 	retl 
40004b74:	c4 20 40 00 	st  %g2, [ %g1 ]

40004b78 <__ajit_serial_uart_reset_inner__>:
40004b78:	03 3f ff cc 	sethi  %hi(0xffff3000), %g1
40004b7c:	80 a2 20 00 	cmp  %o0, 0
40004b80:	12 80 00 08 	bne  40004ba0 <__ajit_serial_uart_reset_inner__+0x28>
40004b84:	82 10 62 00 	or  %g1, 0x200, %g1
40004b88:	c4 80 44 00 	lda  [ %g1 ] #ASI_SCRATCHPAD, %g2
40004b8c:	86 10 20 08 	mov  8, %g3
40004b90:	c6 a0 44 00 	sta  %g3, [ %g1 ] #ASI_SCRATCHPAD
40004b94:	c4 a0 44 00 	sta  %g2, [ %g1 ] #ASI_SCRATCHPAD
40004b98:	81 c3 e0 08 	retl 
40004b9c:	01 00 00 00 	nop 
40004ba0:	c4 08 40 00 	ldub  [ %g1 ], %g2
40004ba4:	81 c3 e0 08 	retl 
40004ba8:	c4 20 40 00 	st  %g2, [ %g1 ]

40004bac <__ajit_serial_uart_reset__>:
40004bac:	90 10 20 00 	clr  %o0
40004bb0:	82 13 c0 00 	mov  %o7, %g1
40004bb4:	7f ff ff f1 	call  40004b78 <__ajit_serial_uart_reset_inner__>
40004bb8:	9e 10 40 00 	mov  %g1, %o7

40004bbc <__ajit_write_irc_control_register__>:
40004bbc:	03 3f ff cc 	sethi  %hi(0xffff3000), %g1
40004bc0:	d0 a0 44 00 	sta  %o0, [ %g1 ] #ASI_SCRATCHPAD
40004bc4:	81 c3 e0 08 	retl 
40004bc8:	01 00 00 00 	nop 

40004bcc <__ajit_read_irc_control_register__>:
40004bcc:	11 3f ff cc 	sethi  %hi(0xffff3000), %o0
40004bd0:	d0 82 04 00 	lda  [ %o0 ] #ASI_SCRATCHPAD, %o0
40004bd4:	81 c3 e0 08 	retl 
40004bd8:	01 00 00 00 	nop 

40004bdc <__ajit_write_irc_control_register_via_vmap__>:
40004bdc:	03 3f ff cc 	sethi  %hi(0xffff3000), %g1
40004be0:	81 c3 e0 08 	retl 
40004be4:	d0 20 40 00 	st  %o0, [ %g1 ]

40004be8 <__ajit_read_irc_control_register_via_vmap__>:
40004be8:	03 3f ff cc 	sethi  %hi(0xffff3000), %g1
40004bec:	81 c3 e0 08 	retl 
40004bf0:	d0 00 40 00 	ld  [ %g1 ], %o0

40004bf4 <__ajit_write_spi_master_register__>:
40004bf4:	91 2a 20 02 	sll  %o0, 2, %o0
40004bf8:	03 3f ff cc 	sethi  %hi(0xffff3000), %g1
40004bfc:	82 10 63 00 	or  %g1, 0x300, %g1	! ffff3300 <res+0xbffb2940>
40004c00:	90 02 00 01 	add  %o0, %g1, %o0
40004c04:	d2 a2 04 00 	sta  %o1, [ %o0 ] #ASI_SCRATCHPAD
40004c08:	81 c3 e0 08 	retl 
40004c0c:	01 00 00 00 	nop 

40004c10 <__ajit_write_spi_master_register_via_vmap__>:
40004c10:	91 2a 20 02 	sll  %o0, 2, %o0
40004c14:	03 3f ff cc 	sethi  %hi(0xffff3000), %g1
40004c18:	82 10 63 00 	or  %g1, 0x300, %g1	! ffff3300 <res+0xbffb2940>
40004c1c:	81 c3 e0 08 	retl 
40004c20:	d2 2a 00 01 	stb  %o1, [ %o0 + %g1 ]

40004c24 <__ajit_read_spi_master_register__>:
40004c24:	91 2a 20 02 	sll  %o0, 2, %o0
40004c28:	03 3f ff cc 	sethi  %hi(0xffff3000), %g1
40004c2c:	82 10 63 00 	or  %g1, 0x300, %g1	! ffff3300 <res+0xbffb2940>
40004c30:	90 02 00 01 	add  %o0, %g1, %o0
40004c34:	d0 82 04 00 	lda  [ %o0 ] #ASI_SCRATCHPAD, %o0
40004c38:	81 c3 e0 08 	retl 
40004c3c:	90 0a 20 ff 	and  %o0, 0xff, %o0

40004c40 <__ajit_read_spi_master_register_via_vmap__>:
40004c40:	91 2a 20 02 	sll  %o0, 2, %o0
40004c44:	03 3f ff cc 	sethi  %hi(0xffff3000), %g1
40004c48:	82 10 63 00 	or  %g1, 0x300, %g1	! ffff3300 <res+0xbffb2940>
40004c4c:	81 c3 e0 08 	retl 
40004c50:	d0 0a 00 01 	ldub  [ %o0 + %g1 ], %o0

40004c54 <__ajit_gpio_xfer__>:
40004c54:	09 3f ff cc 	sethi  %hi(0xffff3000), %g4
40004c58:	82 11 23 00 	or  %g4, 0x300, %g1	! ffff3300 <res+0xbffb2940>
40004c5c:	d0 a0 44 00 	sta  %o0, [ %g1 ] #ASI_SCRATCHPAD
40004c60:	82 10 20 13 	mov  0x13, %g1
40004c64:	88 11 23 08 	or  %g4, 0x308, %g4
40004c68:	c2 a1 04 00 	sta  %g1, [ %g4 ] #ASI_SCRATCHPAD
40004c6c:	82 10 21 00 	mov  0x100, %g1
40004c70:	c4 81 04 00 	lda  [ %g4 ] #ASI_SCRATCHPAD, %g2
40004c74:	82 00 7f ff 	add  %g1, -1, %g1
40004c78:	87 38 60 1f 	sra  %g1, 0x1f, %g3
40004c7c:	86 20 c0 01 	sub  %g3, %g1, %g3
40004c80:	87 30 e0 1f 	srl  %g3, 0x1f, %g3
40004c84:	80 88 c0 02 	btst  %g3, %g2
40004c88:	12 bf ff fa 	bne  40004c70 <__ajit_gpio_xfer__+0x1c>
40004c8c:	11 3f ff cc 	sethi  %hi(0xffff3000), %o0
40004c90:	90 12 23 00 	or  %o0, 0x300, %o0	! ffff3300 <res+0xbffb2940>
40004c94:	d0 82 04 00 	lda  [ %o0 ] #ASI_SCRATCHPAD, %o0
40004c98:	81 c3 e0 08 	retl 
40004c9c:	90 0a 20 ff 	and  %o0, 0xff, %o0

40004ca0 <__ajit_gpio_xfer_via_vmap__>:
40004ca0:	03 3f ff cc 	sethi  %hi(0xffff3000), %g1
40004ca4:	84 10 63 00 	or  %g1, 0x300, %g2	! ffff3300 <res+0xbffb2940>
40004ca8:	d0 28 80 00 	stb  %o0, [ %g2 ]
40004cac:	82 10 63 08 	or  %g1, 0x308, %g1
40004cb0:	84 10 20 13 	mov  0x13, %g2
40004cb4:	81 c3 e0 08 	retl 
40004cb8:	c4 28 40 00 	stb  %g2, [ %g1 ]

40004cbc <__ajit_ta_0__>:
40004cbc:	91 d0 20 00 	ta  0
40004cc0:	01 00 00 00 	nop 
40004cc4:	01 00 00 00 	nop 
40004cc8:	81 c3 e0 08 	retl 
40004ccc:	01 00 00 00 	nop 

40004cd0 <__ajit_fsqrtd__>:
40004cd0:	c1 1a 00 00 	ldd  [ %o0 ], %f0
40004cd4:	85 a0 05 40 	fsqrtd  %f0, %f2
40004cd8:	c5 3a 40 00 	std  %f2, [ %o1 ]
40004cdc:	81 c3 e0 08 	retl 
40004ce0:	01 00 00 00 	nop 

40004ce4 <__ajit_fsqrts__>:
40004ce4:	c1 02 00 00 	ld  [ %o0 ], %f0
40004ce8:	83 a0 05 20 	fsqrts  %f0, %f1
40004cec:	c3 22 40 00 	st  %f1, [ %o1 ]
40004cf0:	81 c3 e0 08 	retl 
40004cf4:	01 00 00 00 	nop 

40004cf8 <__ajit_fitod__>:
40004cf8:	c1 02 00 00 	ld  [ %o0 ], %f0
40004cfc:	85 a0 19 00 	fitod  %f0, %f2
40004d00:	c5 3a 40 00 	std  %f2, [ %o1 ]
40004d04:	81 c3 e0 08 	retl 
40004d08:	01 00 00 00 	nop 

40004d0c <__ajit_fitos__>:
40004d0c:	c1 02 00 00 	ld  [ %o0 ], %f0
40004d10:	83 a0 18 80 	fitos  %f0, %f1
40004d14:	c3 22 40 00 	st  %f1, [ %o1 ]
40004d18:	81 c3 e0 08 	retl 
40004d1c:	01 00 00 00 	nop 

40004d20 <__ajit_fdtoi__>:
40004d20:	c1 1a 00 00 	ldd  [ %o0 ], %f0
40004d24:	85 a0 1a 40 	fdtoi  %f0, %f2
40004d28:	c5 22 40 00 	st  %f2, [ %o1 ]
40004d2c:	81 c3 e0 08 	retl 
40004d30:	01 00 00 00 	nop 

40004d34 <__ajit_fstoi__>:
40004d34:	c1 02 00 00 	ld  [ %o0 ], %f0
40004d38:	83 a0 1a 20 	fstoi  %f0, %f1
40004d3c:	c3 22 40 00 	st  %f1, [ %o1 ]
40004d40:	81 c3 e0 08 	retl 
40004d44:	01 00 00 00 	nop 

40004d48 <main>:
40004d48:	9d e3 bf a0 	save  %sp, -96, %sp
40004d4c:	3b 10 01 00 	sethi  %hi(0x40040000), %i5
40004d50:	86 17 60 c0 	or  %i5, 0xc0, %g3	! 400400c0 <img>
40004d54:	88 00 e9 00 	add  %g3, 0x900, %g4
40004d58:	82 10 20 00 	clr  %g1
40004d5c:	84 00 60 01 	add  %g1, 1, %g2
40004d60:	c4 28 c0 01 	stb  %g2, [ %g3 + %g1 ]
40004d64:	80 a0 a0 30 	cmp  %g2, 0x30
40004d68:	12 bf ff fd 	bne  40004d5c <main+0x14>
40004d6c:	82 10 00 02 	mov  %g2, %g1
40004d70:	86 00 e0 30 	add  %g3, 0x30, %g3
40004d74:	80 a0 c0 04 	cmp  %g3, %g4
40004d78:	12 bf ff f9 	bne  40004d5c <main+0x14>
40004d7c:	82 10 20 00 	clr  %g1
40004d80:	7f ff fc 31 	call  40003e44 <ajit_barebones_clock>
40004d84:	31 10 01 02 	sethi  %hi(0x40040800), %i0
40004d88:	92 10 20 10 	mov  0x10, %o1
40004d8c:	b8 10 00 08 	mov  %o0, %i4
40004d90:	94 10 20 30 	mov  0x30, %o2
40004d94:	90 17 60 c0 	or  %i5, 0xc0, %o0
40004d98:	98 16 21 c0 	or  %i0, 0x1c0, %o4
40004d9c:	17 10 01 00 	sethi  %hi(0x40040000), %o3
40004da0:	7f ff f8 98 	call  40003000 <conv>
40004da4:	96 12 e0 b0 	or  %o3, 0xb0, %o3	! 400400b0 <kernel>
40004da8:	7f ff fc 27 	call  40003e44 <ajit_barebones_clock>
40004dac:	b0 16 21 c0 	or  %i0, 0x1c0, %i0
40004db0:	92 10 00 1c 	mov  %i4, %o1
40004db4:	94 10 00 08 	mov  %o0, %o2
40004db8:	96 22 00 1c 	sub  %o0, %i4, %o3
40004dbc:	11 10 01 00 	sethi  %hi(0x40040000), %o0
40004dc0:	b2 10 20 2d 	mov  0x2d, %i1
40004dc4:	90 12 20 80 	or  %o0, 0x80, %o0
40004dc8:	7f ff f9 cb 	call  400034f4 <ee_printf>
40004dcc:	b4 10 20 2d 	mov  0x2d, %i2
40004dd0:	7f ff fb d7 	call  40003d2c <print_matrix>
40004dd4:	81 e8 00 00 	restore 
